(dp0
(I3325000
I3475000
tp1
F1.3159
s(I3165000
I3480000
tp2
F0.35763
s(I3215000
I3435000
tp3
F0.073933
s(I3235000
I3280000
tp4
F2.8154
s(I3225000
I3365000
tp5
F1.7314
s(I3190000
I3295000
tp6
F0.22698
s(I3245000
I3485000
tp7
F0.8725
s(I3110000
I3395000
tp8
F0.67593
s(I3280000
I3480000
tp9
F1.273
s(I3105000
I3445000
tp10
F1.3037
s(I3185000
I3285000
tp11
F0.37319
s(I3045000
I3055000
tp12
F-0.24617
s(I3120000
I3295000
tp13
F-0.38796
s(I3400000
I3490000
tp14
F0.89508
s(I3110000
I3195000
tp15
F0.61608
s(I3450000
I3470000
tp16
F0.27611
s(I3140000
I3320000
tp17
F1.3497
s(I3395000
I3490000
tp18
F0.34678
s(I3140000
I3210000
tp19
F0.749
s(I3080000
I3225000
tp20
F0.34514
s(I3165000
I3330000
tp21
F0.61073
s(I3265000
I3420000
tp22
F1.1199
s(I3195000
I3430000
tp23
F0.68424
s(I3200000
I3220000
tp24
F0.89371
s(I3100000
I3255000
tp25
F-0.013535
s(I3295000
I3430000
tp26
F0.10472
s(I3295000
I3330000
tp27
F1.1551
s(I3085000
I3440000
tp28
F-0.45123
s(I3100000
I3180000
tp29
F-0.15984
s(I3320000
I3395000
tp30
F1.3236
s(I3120000
I3260000
tp31
F0.57919
s(I3245000
I3260000
tp32
F0.97424
s(I3125000
I3285000
tp33
F0.21651
s(I3200000
I3375000
tp34
F0.27026
s(I3385000
I3450000
tp35
F1.3074
s(I3030000
I3050000
tp36
F-0.066993
s(I3185000
I3430000
tp37
F0.25739
s(I3225000
I3400000
tp38
F0.45833
s(I3275000
I3285000
tp39
F-0.66794
s(I3135000
I3470000
tp40
F-0.74592
s(I3180000
I3210000
tp41
F0.26885
s(I3095000
I3420000
tp42
F0.15994
s(I3070000
I3445000
tp43
F0.23357
s(I3325000
I3435000
tp44
F1.3748
s(I3170000
I3405000
tp45
F0.38412
s(I3305000
I3380000
tp46
F-1.1142
s(I3205000
I3360000
tp47
F0.073651
s(I3210000
I3240000
tp48
F-0.16416
s(I3005000
I3105000
tp49
F-0.011217
s(I3140000
I3225000
tp50
F-0.1744
s(I3005000
I3115000
tp51
F0.010114
s(I3215000
I3410000
tp52
F1.3969
s(I3185000
I3450000
tp53
F0.58742
s(I3205000
I3300000
tp54
F1.0361
s(I3215000
I3245000
tp55
F0.96166
s(I3280000
I3360000
tp56
F0.7825
s(I3415000
I3435000
tp57
F-0.066993
s(I3275000
I3325000
tp58
F0.24472
s(I3140000
I3465000
tp59
F-0.062249
s(I3170000
I3315000
tp60
F0.41993
s(I3220000
I3390000
tp61
F-0.23922
s(I3310000
I3485000
tp62
F1.0225
s(I3185000
I3210000
tp63
F0.5741
s(I3030000
I3420000
tp64
F0.020895
s(I3080000
I3290000
tp65
F-0.15425
s(I3170000
I3265000
tp66
F0.040402
s(I3225000
I3325000
tp67
F-0.16498
s(I3175000
I3415000
tp68
F-0.62043
s(I3245000
I3365000
tp69
F1.0693
s(I3030000
I3115000
tp70
F0.61608
s(I3285000
I3430000
tp71
F-0.32795
s(I3080000
I3360000
tp72
F-0.22947
s(I3025000
I3315000
tp73
F-0.071938
s(I3325000
I3490000
tp74
F1.2289
s(I3205000
I3405000
tp75
F0.15875
s(I3250000
I3440000
tp76
F1.73
s(I3050000
I3205000
tp77
F-0.53665
s(I3105000
I3485000
tp78
F2.0431
s(I3115000
I3315000
tp79
F0.4373
s(I3305000
I3450000
tp80
F0.49471
s(I3210000
I3475000
tp81
F0.8079
s(I3125000
I3435000
tp82
F8.2641e-05
s(I3245000
I3475000
tp83
F0.84429
s(I3265000
I3400000
tp84
F-0.050479
s(I3180000
I3375000
tp85
F1.1065
s(I3130000
I3430000
tp86
F0.41828
s(I3005000
I3235000
tp87
F-0.72256
s(I3245000
I3265000
tp88
F0.31042
s(I3190000
I3485000
tp89
F-0.053456
s(I3215000
I3300000
tp90
F1.0772
s(I3315000
I3420000
tp91
F0.30146
s(I3005000
I3390000
tp92
F0.63743
s(I3255000
I3490000
tp93
F0.18405
s(I3120000
I3365000
tp94
F0.044445
s(I3130000
I3485000
tp95
F0.28589
s(I3225000
I3395000
tp96
F0.32075
s(I3330000
I3410000
tp97
F0.37864
s(I3180000
I3440000
tp98
F-0.4236
s(I3190000
I3300000
tp99
F0.81288
s(I3375000
I3475000
tp100
F1.9108
s(I3400000
I3425000
tp101
F-0.29447
s(I3310000
I3335000
tp102
F0.9689
s(I3245000
I3370000
tp103
F0.54355
s(I3100000
I3140000
tp104
F0.23954
s(I3025000
I3265000
tp105
F-0.62043
s(I3260000
I3470000
tp106
F0.33824
s(I3260000
I3395000
tp107
F-0.51607
s(I3220000
I3375000
tp108
F-0.10072
s(I3075000
I3485000
tp109
F-0.044193
s(I3170000
I3480000
tp110
F0.23221
s(I3255000
I3470000
tp111
F0.28106
s(I3120000
I3285000
tp112
F0.43412
s(I3275000
I3315000
tp113
F3.5371
s(I3260000
I3360000
tp114
F0.45007
s(I3065000
I3435000
tp115
F-0.91104
s(I3065000
I3080000
tp116
F0.47248
s(I3300000
I3485000
tp117
F1.8524
s(I3120000
I3400000
tp118
F-0.45644
s(I3135000
I3175000
tp119
F1.0373
s(I3370000
I3465000
tp120
F0.95954
s(I3275000
I3360000
tp121
F1.6042
s(I3025000
I3455000
tp122
F2.1614
s(I3085000
I3475000
tp123
F0.020895
s(I3220000
I3255000
tp124
F0.14787
s(I3215000
I3270000
tp125
F0.29583
s(I3385000
I3445000
tp126
F1.028
s(I3225000
I3235000
tp127
F0.69778
s(I3040000
I3165000
tp128
F0.78131
s(I3085000
I3365000
tp129
F1.1323
s(I3235000
I3355000
tp130
F1.0693
s(I3175000
I3385000
tp131
F0.33824
s(I3080000
I3095000
tp132
F0.2216
s(I3060000
I3075000
tp133
F1.253
s(I3270000
I3360000
tp134
F-0.056005
s(I3385000
I3400000
tp135
F-0.0014019
s(I3095000
I3475000
tp136
F0.25243
s(I3240000
I3480000
tp137
F1.619
s(I3280000
I3435000
tp138
F0.33521
s(I3380000
I3470000
tp139
F0.89508
s(I3230000
I3395000
tp140
F0.43412
s(I3005000
I3250000
tp141
F-0.48791
s(I3255000
I3385000
tp142
F0.14241
s(I3390000
I3475000
tp143
F0.94544
s(I3070000
I3255000
tp144
F-0.49699
s(I3180000
I3215000
tp145
F1.0112
s(I3125000
I3180000
tp146
F-0.43985
s(I3235000
I3290000
tp147
F1.2417
s(I3220000
I3235000
tp148
F-0.14078
s(I3435000
I3490000
tp149
F0.50602
s(I3135000
I3395000
tp150
F-0.31419
s(I3140000
I3170000
tp151
F3.6463
s(I3030000
I3415000
tp152
F-0.36722
s(I3285000
I3380000
tp153
F0.80635
s(I3215000
I3460000
tp154
F0.36386
s(I3100000
I3420000
tp155
F-0.18401
s(I3190000
I3260000
tp156
F1.0822
s(I3165000
I3315000
tp157
F-0.32088
s(I3025000
I3310000
tp158
F0.016852
s(I3240000
I3375000
tp159
F-0.12808
s(I3030000
I3455000
tp160
F0.6662
s(I3110000
I3325000
tp161
F-0.62826
s(I3220000
I3285000
tp162
F0.8816
s(I3230000
I3270000
tp163
F0.23954
s(I3080000
I3410000
tp164
F-0.15993
s(I3010000
I3205000
tp165
F0.23529
s(I3225000
I3490000
tp166
F0.8079
s(I3250000
I3375000
tp167
F0.86056
s(I3265000
I3405000
tp168
F0.57919
s(I3100000
I3135000
tp169
F0.099908
s(I3080000
I3335000
tp170
F-0.44901
s(I3070000
I3415000
tp171
F-0.23309
s(I3040000
I3290000
tp172
F-0.56927
s(I3210000
I3300000
tp173
F0.51465
s(I3075000
I3250000
tp174
F2.433
s(I3185000
I3245000
tp175
F0.40426
s(I3255000
I3460000
tp176
F0.80773
s(I3105000
I3130000
tp177
F-0.57083
s(I3025000
I3250000
tp178
F0.34113
s(I3320000
I3480000
tp179
F0.30473
s(I3315000
I3410000
tp180
F0.42337
s(I3470000
I3485000
tp181
F1.3366
s(I3100000
I3160000
tp182
F0.96565
s(I3065000
I3285000
tp183
F0.68491
s(I3210000
I3410000
tp184
F0.623
s(I3140000
I3255000
tp185
F0.52333
s(I3260000
I3300000
tp186
F1.0373
s(I3240000
I3325000
tp187
F0.94544
s(I3205000
I3240000
tp188
F-0.37971
s(I3195000
I3365000
tp189
F0.50741
s(I3140000
I3395000
tp190
F-0.88373
s(I3325000
I3485000
tp191
F0.74578
s(I3115000
I3360000
tp192
F0.5768
s(I3330000
I3380000
tp193
F1.3124
s(I3220000
I3315000
tp194
F0.80635
s(I3110000
I3255000
tp195
F-0.028801
s(I3090000
I3435000
tp196
F0.36736
s(I3040000
I3080000
tp197
F-1.8347
s(I3185000
I3475000
tp198
F1.0661
s(I3110000
I3335000
tp199
F1.9704
s(I3405000
I3455000
tp200
F0.80666
s(I3370000
I3385000
tp201
F0.2216
s(I3175000
I3455000
tp202
F-0.91036
s(I3405000
I3420000
tp203
F0.4446
s(I3195000
I3325000
tp204
F0.56834
s(I3325000
I3385000
tp205
F-0.96805
s(I3035000
I3060000
tp206
F0.25825
s(I3235000
I3245000
tp207
F-0.56752
s(I3120000
I3275000
tp208
F1.3814
s(I3330000
I3355000
tp209
F1.3242
s(I3085000
I3420000
tp210
F0.098752
s(I3315000
I3440000
tp211
F0.86056
s(I3125000
I3165000
tp212
F1.4628
s(I3115000
I3285000
tp213
F0.040766
s(I3295000
I3395000
tp214
F0.29631
s(I3180000
I3285000
tp215
F-0.74118
s(I3065000
I3445000
tp216
F-0.2592
s(I3320000
I3460000
tp217
F0.74379
s(I3180000
I3415000
tp218
F0.68424
s(I3040000
I3385000
tp219
F2.529
s(I3140000
I3425000
tp220
F0.67593
s(I3365000
I3440000
tp221
F0.78187
s(I3105000
I3460000
tp222
F0.28589
s(I3190000
I3250000
tp223
F0.40426
s(I3210000
I3465000
tp224
F1.7246
s(I3125000
I3265000
tp225
F0.00311
s(I3125000
I3280000
tp226
F-0.62384
s(I3135000
I3305000
tp227
F1.4407
s(I3275000
I3430000
tp228
F-0.44947
s(I3105000
I3490000
tp229
F0.38627
s(I3245000
I3450000
tp230
F0.11176
s(I3005000
I3270000
tp231
F2.0206
s(I3105000
I3360000
tp232
F-0.44901
s(I3185000
I3305000
tp233
F-0.16145
s(I3360000
I3490000
tp234
F0.90909
s(I3365000
I3435000
tp235
F0.68236
s(I3235000
I3310000
tp236
F0.78187
s(I3205000
I3330000
tp237
F0.14728
s(I3405000
I3480000
tp238
F1.0527
s(I3075000
I3425000
tp239
F0.27175
s(I3125000
I3205000
tp240
F0.7825
s(I3095000
I3265000
tp241
F-0.70587
s(I3240000
I3435000
tp242
F-0.24872
s(I3315000
I3370000
tp243
F1.0315
s(I3265000
I3325000
tp244
F0.2795
s(I3095000
I3390000
tp245
F0.39891
s(I3130000
I3250000
tp246
F0.084695
s(I3220000
I3475000
tp247
F0.74647
s(I3305000
I3410000
tp248
F0.37593
s(I3095000
I3225000
tp249
F-0.53907
s(I3065000
I3450000
tp250
F-0.11606
s(I3185000
I3250000
tp251
F-0.091566
s(I3100000
I3230000
tp252
F-0.3687
s(I3270000
I3280000
tp253
F-0.42693
s(I3450000
I3485000
tp254
F0.77137
s(I3085000
I3205000
tp255
F0.16674
s(I3140000
I3165000
tp256
F2.0743
s(I3115000
I3330000
tp257
F-0.12309
s(I3330000
I3395000
tp258
F0.45584
s(I3125000
I3175000
tp259
F2.0429
s(I3070000
I3110000
tp260
F0.13316
s(I3015000
I3200000
tp261
F2.98
s(I3375000
I3485000
tp262
F0.33122
s(I3130000
I3305000
tp263
F-0.85811
s(I3275000
I3485000
tp264
F3.0962
s(I3135000
I3325000
tp265
F-0.092881
s(I3200000
I3480000
tp266
F1.8132
s(I3295000
I3455000
tp267
F0.83399
s(I3110000
I3455000
tp268
F0.0070916
s(I3085000
I3395000
tp269
F0.81254
s(I3100000
I3385000
tp270
F1.6646
s(I3270000
I3450000
tp271
F0.21851
s(I3025000
I3040000
tp272
F-0.92129
s(I3305000
I3475000
tp273
F1.254
s(I3040000
I3370000
tp274
F0.66051
s(I3415000
I3465000
tp275
F0.52569
s(I3255000
I3295000
tp276
F0.026791
s(I3165000
I3210000
tp277
F-0.46925
s(I3210000
I3280000
tp278
F1.8819
s(I3070000
I3440000
tp279
F0.21372
s(I3080000
I3455000
tp280
F0.10612
s(I3315000
I3425000
tp281
F0.65233
s(I3360000
I3450000
tp282
F0.45124
s(I3365000
I3430000
tp283
F1.5507
s(I3320000
I3435000
tp284
F0.072356
s(I3115000
I3400000
tp285
F0.1267
s(I3420000
I3430000
tp286
F0.45677
s(I3005000
I3265000
tp287
F0.12345
s(I3370000
I3430000
tp288
F0.96565
s(I3095000
I3480000
tp289
F0.51185
s(I3100000
I3365000
tp290
F0.036206
s(I3100000
I3120000
tp291
F0.34473
s(I3300000
I3435000
tp292
F0.33751
s(I3125000
I3335000
tp293
F-0.44974
s(I3070000
I3385000
tp294
F-1.2222
s(I3075000
I3460000
tp295
F1.5165
s(I3375000
I3395000
tp296
F0.2418
s(I3095000
I3380000
tp297
F0.78578
s(I3245000
I3320000
tp298
F1.3236
s(I3330000
I3420000
tp299
F0.070807
s(I3035000
I3055000
tp300
F2.3691
s(I3045000
I3395000
tp301
F0.14907
s(I3400000
I3470000
tp302
F0.48244
s(I3065000
I3365000
tp303
F0.53209
s(I3225000
I3280000
tp304
F0.24328
s(I3190000
I3460000
tp305
F0.39169
s(I3225000
I3260000
tp306
F0.29175
s(I3235000
I3420000
tp307
F1.7584
s(I3330000
I3430000
tp308
F0.83447
s(I3025000
I3035000
tp309
F0.73795
s(I3210000
I3225000
tp310
F-0.19653
s(I3075000
I3115000
tp311
F-0.29233
s(I3300000
I3475000
tp312
F1.1165
s(I3460000
I3485000
tp313
F0.17929
s(I3260000
I3465000
tp314
F0.90715
s(I3030000
I3290000
tp315
F0.6705
s(I3430000
I3485000
tp316
F0.24328
s(I3005000
I3190000
tp317
F1.1945
s(I3190000
I3320000
tp318
F0.65353
s(I3070000
I3180000
tp319
F0.33122
s(I3140000
I3365000
tp320
F1.3594
s(I3130000
I3140000
tp321
F2.2443
s(I3215000
I3260000
tp322
F0.90819
s(I3445000
I3475000
tp323
F1.1349
s(I3195000
I3450000
tp324
F0.63779
s(I3245000
I3300000
tp325
F0.71622
s(I3100000
I3195000
tp326
F0.57656
s(I3005000
I3065000
tp327
F-1.3423
s(I3140000
I3490000
tp328
F-0.096289
s(I3115000
I3165000
tp329
F1.4248
s(I3045000
I3475000
tp330
F0.94931
s(I3270000
I3455000
tp331
F0.91262
s(I3465000
I3485000
tp332
F0.34473
s(I3200000
I3410000
tp333
F0.042744
s(I3030000
I3265000
tp334
F0.48416
s(I3220000
I3440000
tp335
F0.60854
s(I3045000
I3095000
tp336
F0.91904
s(I3175000
I3230000
tp337
F-0.80769
s(I3065000
I3220000
tp338
F-0.97258
s(I3190000
I3310000
tp339
F-0.73578
s(I3285000
I3310000
tp340
F1.2058
s(I3105000
I3325000
tp341
F0.073933
s(I3270000
I3420000
tp342
F1.8327
s(I3170000
I3365000
tp343
F0.5257
s(I3195000
I3460000
tp344
F0.8079
s(I3390000
I3490000
tp345
F0.21942
s(I3140000
I3305000
tp346
F0.78734
s(I3210000
I3270000
tp347
F0.34188
s(I3375000
I3415000
tp348
F1.3564
s(I3045000
I3460000
tp349
F-0.16197
s(I3395000
I3430000
tp350
F0.67545
s(I3390000
I3400000
tp351
F0.47686
s(I3420000
I3490000
tp352
F-0.050675
s(I3430000
I3490000
tp353
F0.46663
s(I3125000
I3225000
tp354
F-1.0875
s(I3295000
I3315000
tp355
F0.79077
s(I3360000
I3400000
tp356
F0.45228
s(I3220000
I3250000
tp357
F1.0483
s(I3220000
I3400000
tp358
F0.21851
s(I3230000
I3375000
tp359
F0.19556
s(I3380000
I3400000
tp360
F0.13887
s(I3030000
I3085000
tp361
F0.76876
s(I3285000
I3370000
tp362
F0.35258
s(I3090000
I3265000
tp363
F0.45833
s(I3270000
I3405000
tp364
F0.33751
s(I3215000
I3420000
tp365
F0.60888
s(I3075000
I3195000
tp366
F-0.81783
s(I3030000
I3380000
tp367
F-0.34165
s(I3090000
I3220000
tp368
F0.2276
s(I3045000
I3380000
tp369
F0.46075
s(I3040000
I3365000
tp370
F1.382
s(I3175000
I3310000
tp371
F0.10472
s(I3095000
I3470000
tp372
F0.36102
s(I3070000
I3410000
tp373
F0.34787
s(I3210000
I3285000
tp374
F0.30785
s(I3200000
I3295000
tp375
F1.1127
s(I3175000
I3200000
tp376
F-0.25499
s(I3320000
I3330000
tp377
F0.61745
s(I3115000
I3465000
tp378
F-0.46433
s(I3090000
I3115000
tp379
F-0.57083
s(I3410000
I3470000
tp380
F0.34188
s(I3275000
I3405000
tp381
F1.6758
s(I3290000
I3305000
tp382
F0.38885
s(I3005000
I3075000
tp383
F-0.31723
s(I3180000
I3455000
tp384
F0.3071
s(I3240000
I3260000
tp385
F0.37905
s(I3080000
I3330000
tp386
F-0.67501
s(I3200000
I3240000
tp387
F-0.026395
s(I3125000
I3385000
tp388
F-0.31419
s(I3120000
I3140000
tp389
F1.0653
s(I3255000
I3480000
tp390
F1.2576
s(I3215000
I3365000
tp391
F0.45442
s(I3120000
I3470000
tp392
F0.026392
s(I3290000
I3335000
tp393
F0.53734
s(I3165000
I3175000
tp394
F-0.28634
s(I3025000
I3400000
tp395
F0.48847
s(I3270000
I3480000
tp396
F0.83072
s(I3170000
I3310000
tp397
F0.16771
s(I3375000
I3420000
tp398
F1.0671
s(I3365000
I3405000
tp399
F0.82458
s(I3180000
I3355000
tp400
F0.45833
s(I3450000
I3465000
tp401
F0.13797
s(I3005000
I3275000
tp402
F0.059145
s(I3315000
I3330000
tp403
F0.72336
s(I3115000
I3460000
tp404
F0.0070916
s(I3135000
I3370000
tp405
F-0.7163
s(I3095000
I3425000
tp406
F-0.86317
s(I3190000
I3220000
tp407
F0.18224
s(I3180000
I3300000
tp408
F1.3975
s(I3115000
I3180000
tp409
F-0.091566
s(I3285000
I3305000
tp410
F1.7515
s(I3170000
I3190000
tp411
F-0.65027
s(I3110000
I3475000
tp412
F0.87295
s(I3125000
I3485000
tp413
F0.78368
s(I3290000
I3330000
tp414
F1.0905
s(I3305000
I3360000
tp415
F0.033085
s(I3185000
I3440000
tp416
F0.42043
s(I3035000
I3050000
tp417
F-1.6182
s(I3300000
I3420000
tp418
F1.0693
s(I3140000
I3390000
tp419
F-0.040572
s(I3115000
I3225000
tp420
F0.17067
s(I3465000
I3480000
tp421
F1.253
s(I3185000
I3290000
tp422
F0.37593
s(I3265000
I3470000
tp423
F0.012336
s(I3080000
I3210000
tp424
F0.56834
s(I3260000
I3410000
tp425
F1.3159
s(I3425000
I3465000
tp426
F0.34591
s(I3225000
I3255000
tp427
F1.2215
s(I3190000
I3455000
tp428
F0.36693
s(I3115000
I3470000
tp429
F0.40874
s(I3035000
I3410000
tp430
F0.23357
s(I3190000
I3430000
tp431
F0.65923
s(I3140000
I3460000
tp432
F-0.40578
s(I3360000
I3370000
tp433
F0.57728
s(I3030000
I3430000
tp434
F0.5625
s(I3355000
I3460000
tp435
F1.4186
s(I3235000
I3365000
tp436
F1.2498
s(I3040000
I3220000
tp437
F-1.4783
s(I3030000
I3060000
tp438
F0.57195
s(I3015000
I3130000
tp439
F0.78103
s(I3445000
I3460000
tp440
F0.91848
s(I3020000
I3130000
tp441
F0.57205
s(I3085000
I3130000
tp442
F-0.8401
s(I3080000
I3130000
tp443
F1.1438
s(I3100000
I3490000
tp444
F-0.59837
s(I3205000
I3275000
tp445
F0.21588
s(I3065000
I3075000
tp446
F-1.8328
s(I3225000
I3375000
tp447
F1.3159
s(I3205000
I3450000
tp448
F0.25739
s(I3030000
I3275000
tp449
F0.25739
s(I3280000
I3315000
tp450
F1.7306
s(I3290000
I3460000
tp451
F1.3474
s(I3205000
I3400000
tp452
F-0.15192
s(I3440000
I3480000
tp453
F1.5692
s(I3025000
I3140000
tp454
F1.1031
s(I3025000
I3285000
tp455
F0.56109
s(I3130000
I3335000
tp456
F0.41003
s(I3045000
I3480000
tp457
F0.41646
s(I3025000
I3065000
tp458
F-0.61144
s(I3190000
I3355000
tp459
F1.1406
s(I3035000
I3400000
tp460
F0.18148
s(I3305000
I3415000
tp461
F1.3748
s(I3095000
I3440000
tp462
F0.36736
s(I3360000
I3375000
tp463
F0.94636
s(I3110000
I3465000
tp464
F0.65445
s(I3360000
I3475000
tp465
F0.7166
s(I3290000
I3420000
tp466
F1.4202
s(I3300000
I3430000
tp467
F0.31279
s(I3090000
I3130000
tp468
F-0.71781
s(I3170000
I3355000
tp469
F0.44275
s(I3210000
I3460000
tp470
F1.1226
s(I3005000
I3110000
tp471
F-0.14539
s(I3075000
I3185000
tp472
F-0.9532
s(I3215000
I3225000
tp473
F0.91871
s(I3120000
I3355000
tp474
F-0.21611
s(I3170000
I3305000
tp475
F0.10472
s(I3445000
I3490000
tp476
F0.85521
s(I3035000
I3195000
tp477
F-0.22454
s(I3170000
I3255000
tp478
F0.28671
s(I3185000
I3400000
tp479
F0.18002
s(I3095000
I3105000
tp480
F0.15551
s(I3065000
I3180000
tp481
F0.33005
s(I3125000
I3215000
tp482
F0.57805
s(I3295000
I3435000
tp483
F0.085408
s(I3075000
I3440000
tp484
F-0.39474
s(I3370000
I3460000
tp485
F0.83168
s(I3095000
I3130000
tp486
F0.57952
s(I3250000
I3420000
tp487
F0.50741
s(I3245000
I3270000
tp488
F0.73202
s(I3260000
I3355000
tp489
F2.3382
s(I3015000
I3035000
tp490
F-1.1649
s(I3085000
I3390000
tp491
F-1.1579
s(I3395000
I3440000
tp492
F0.43138
s(I3215000
I3295000
tp493
F1.2537
s(I3335000
I3490000
tp494
F0.33521
s(I3165000
I3320000
tp495
F0.68395
s(I3005000
I3295000
tp496
F0.44534
s(I3120000
I3480000
tp497
F0.54059
s(I3135000
I3390000
tp498
F-0.23165
s(I3305000
I3470000
tp499
F0.0809
s(I3240000
I3315000
tp500
F1.1205
s(I3285000
I3415000
tp501
F0.48316
s(I3195000
I3400000
tp502
F0.90715
s(I3395000
I3410000
tp503
F1.1972
s(I3110000
I3485000
tp504
F1.2532
s(I3090000
I3135000
tp505
F0.53734
s(I3305000
I3395000
tp506
F0.70487
s(I3120000
I3380000
tp507
F-0.4236
s(I3280000
I3365000
tp508
F1.1431
s(I3030000
I3215000
tp509
F-0.12109
s(I3120000
I3220000
tp510
F0.83447
s(I3045000
I3085000
tp511
F-0.55826
s(I3360000
I3480000
tp512
F1.0693
s(I3265000
I3440000
tp513
F0.36429
s(I3030000
I3110000
tp514
F-0.29446
s(I3095000
I3250000
tp515
F-0.62384
s(I3210000
I3265000
tp516
F0.40092
s(I3215000
I3490000
tp517
F0.98372
s(I3100000
I3110000
tp518
F-0.74828
s(I3235000
I3305000
tp519
F-1.3835
s(I3230000
I3415000
tp520
F0.6307
s(I3025000
I3100000
tp521
F0.37557
s(I3395000
I3470000
tp522
F0.511
s(I3295000
I3405000
tp523
F0.89315
s(I3390000
I3415000
tp524
F0.10033
s(I3070000
I3140000
tp525
F0.81564
s(I3070000
I3170000
tp526
F1.142
s(I3110000
I3470000
tp527
F0.17596
s(I3280000
I3450000
tp528
F-0.61254
s(I3005000
I3320000
tp529
F0.019092
s(I3220000
I3410000
tp530
F0.38683
s(I3285000
I3420000
tp531
F0.7255
s(I3235000
I3265000
tp532
F-0.12086
s(I3250000
I3260000
tp533
F0.61745
s(I3175000
I3435000
tp534
F0.6705
s(I3280000
I3485000
tp535
F1.6031
s(I3225000
I3455000
tp536
F0.64843
s(I3080000
I3190000
tp537
F-0.070162
s(I3315000
I3365000
tp538
F0.86285
s(I3005000
I3260000
tp539
F-0.23165
s(I3235000
I3390000
tp540
F0.42239
s(I3125000
I3405000
tp541
F-0.11599
s(I3390000
I3410000
tp542
F0.68784
s(I3130000
I3390000
tp543
F0.12345
s(I3025000
I3110000
tp544
F-0.30615
s(I3425000
I3450000
tp545
F0.73202
s(I3335000
I3360000
tp546
F1.719
s(I3375000
I3425000
tp547
F0.80666
s(I3205000
I3475000
tp548
F0.94593
s(I3185000
I3415000
tp549
F0.45258
s(I3105000
I3220000
tp550
F0.58775
s(I3175000
I3325000
tp551
F-0.14859
s(I3175000
I3330000
tp552
F0.073651
s(I3190000
I3490000
tp553
F1.784
s(I3120000
I3445000
tp554
F0.93761
s(I3030000
I3140000
tp555
F2.3381
s(I3430000
I3480000
tp556
F0.75046
s(I3445000
I3470000
tp557
F1.1268
s(I3100000
I3215000
tp558
F-0.63631
s(I3230000
I3255000
tp559
F0.7715
s(I3090000
I3305000
tp560
F-0.52723
s(I3305000
I3370000
tp561
F-0.39568
s(I3225000
I3470000
tp562
F-0.062026
s(I3360000
I3390000
tp563
F0.96166
s(I3330000
I3445000
tp564
F0.58775
s(I3105000
I3120000
tp565
F0.75123
s(I3100000
I3440000
tp566
F-0.36903
s(I3070000
I3360000
tp567
F0.031518
s(I3040000
I3425000
tp568
F0.38627
s(I3080000
I3305000
tp569
F-0.16803
s(I3275000
I3375000
tp570
F-1.2413
s(I3085000
I3455000
tp571
F-1.036
s(I3215000
I3360000
tp572
F0.64429
s(I3265000
I3375000
tp573
F-0.23072
s(I3080000
I3185000
tp574
F0.37593
s(I3065000
I3095000
tp575
F0.57195
s(I3085000
I3320000
tp576
F-0.41619
s(I3065000
I3195000
tp577
F0.73871
s(I3295000
I3440000
tp578
F0.045987
s(I3040000
I3215000
tp579
F-0.29393
s(I3320000
I3405000
tp580
F0.28671
s(I3130000
I3320000
tp581
F-0.5726
s(I3260000
I3390000
tp582
F0.31279
s(I3215000
I3280000
tp583
F1.1857
s(I3295000
I3365000
tp584
F1.2821
s(I3365000
I3400000
tp585
F0.57952
s(I3135000
I3425000
tp586
F1.0661
s(I3100000
I3335000
tp587
F0.18405
s(I3010000
I3200000
tp588
F0.67466
s(I3065000
I3360000
tp589
F-0.39273
s(I3135000
I3435000
tp590
F0.53209
s(I3325000
I3465000
tp591
F0.4146
s(I3175000
I3395000
tp592
F0.83765
s(I3135000
I3285000
tp593
F-0.75161
s(I3085000
I3200000
tp594
F0.78103
s(I3075000
I3325000
tp595
F-0.35779
s(I3115000
I3240000
tp596
F-0.24899
s(I3360000
I3395000
tp597
F0.72341
s(I3070000
I3200000
tp598
F0.057228
s(I3260000
I3480000
tp599
F0.60854
s(I3185000
I3335000
tp600
F0.36827
s(I3320000
I3410000
tp601
F0.70487
s(I3140000
I3485000
tp602
F-0.113
s(I3165000
I3490000
tp603
F0.49323
s(I3265000
I3300000
tp604
F-0.28378
s(I3105000
I3365000
tp605
F-0.095371
s(I3165000
I3305000
tp606
F-0.73757
s(I3265000
I3355000
tp607
F0.57805
s(I3215000
I3480000
tp608
F1.1386
s(I3110000
I3390000
tp609
F0.33793
s(I3290000
I3455000
tp610
F0.25751
s(I3230000
I3450000
tp611
F1.2195
s(I3130000
I3310000
tp612
F-0.064292
s(I3415000
I3430000
tp613
F1.3366
s(I3260000
I3275000
tp614
F-1.9527
s(I3065000
I3100000
tp615
F-0.90729
s(I3175000
I3480000
tp616
F2.6064
s(I3115000
I3260000
tp617
F-0.25317
s(I3135000
I3375000
tp618
F0.65923
s(I3075000
I3355000
tp619
F1.4727
s(I3130000
I3360000
tp620
F-0.23292
s(I3065000
I3355000
tp621
F-0.48576
s(I3080000
I3400000
tp622
F-0.073125
s(I3005000
I3130000
tp623
F0.14728
s(I3180000
I3235000
tp624
F-0.3873
s(I3040000
I3475000
tp625
F1.9964
s(I3185000
I3215000
tp626
F0.22554
s(I3360000
I3420000
tp627
F0.59139
s(I3035000
I3090000
tp628
F-1.3332
s(I3130000
I3400000
tp629
F-0.60594
s(I3280000
I3355000
tp630
F0.98503
s(I3275000
I3355000
tp631
F-1.5734
s(I3170000
I3465000
tp632
F0.96438
s(I3130000
I3460000
tp633
F1.0121
s(I3325000
I3420000
tp634
F0.80635
s(I3140000
I3195000
tp635
F1.3468
s(I3095000
I3360000
tp636
F-0.515
s(I3080000
I3445000
tp637
F-0.16425
s(I3200000
I3445000
tp638
F0.5768
s(I3290000
I3450000
tp639
F0.9222
s(I3005000
I3180000
tp640
F-0.29393
s(I3395000
I3465000
tp641
F-0.11731
s(I3130000
I3165000
tp642
F2.1623
s(I3120000
I3250000
tp643
F0.31279
s(I3185000
I3270000
tp644
F1.1431
s(I3045000
I3485000
tp645
F0.93212
s(I3280000
I3295000
tp646
F0.66761
s(I3095000
I3140000
tp647
F0.21947
s(I3170000
I3205000
tp648
F-0.043976
s(I3255000
I3445000
tp649
F0.7706
s(I3290000
I3480000
tp650
F0.7706
s(I3115000
I3255000
tp651
F0.085408
s(I3125000
I3460000
tp652
F0.82275
s(I3185000
I3455000
tp653
F-0.051703
s(I3030000
I3285000
tp654
F-0.34033
s(I3325000
I3395000
tp655
F0.94892
s(I3240000
I3395000
tp656
F0.33521
s(I3250000
I3280000
tp657
F1.438
s(I3120000
I3180000
tp658
F-0.094763
s(I3125000
I3230000
tp659
F-0.81566
s(I3065000
I3415000
tp660
F2.48
s(I3295000
I3480000
tp661
F0.81865
s(I3035000
I3365000
tp662
F0.074479
s(I3140000
I3405000
tp663
F1.0284
s(I3355000
I3480000
tp664
F0.93981
s(I3135000
I3365000
tp665
F-0.42878
s(I3100000
I3285000
tp666
F0.066854
s(I3215000
I3325000
tp667
F0.81288
s(I3035000
I3390000
tp668
F-0.81979
s(I3240000
I3280000
tp669
F1.8351
s(I3045000
I3405000
tp670
F0.17596
s(I3320000
I3430000
tp671
F1.0537
s(I3185000
I3405000
tp672
F0.45579
s(I3445000
I3480000
tp673
F0.57952
s(I3105000
I3185000
tp674
F-0.63102
s(I3165000
I3185000
tp675
F-1.1306
s(I3025000
I3470000
tp676
F-0.22698
s(I3040000
I3210000
tp677
F-0.61254
s(I3175000
I3195000
tp678
F-0.23855
s(I3200000
I3255000
tp679
F0.24328
s(I3180000
I3445000
tp680
F-0.95597
s(I3045000
I3365000
tp681
F-0.2949
s(I3025000
I3130000
tp682
F-0.44329
s(I3395000
I3450000
tp683
F0.55857
s(I3425000
I3470000
tp684
F1.491
s(I3120000
I3130000
tp685
F0.15551
s(I3270000
I3300000
tp686
F2.0009
s(I3105000
I3450000
tp687
F0.48745
s(I3210000
I3470000
tp688
F1.327
s(I3045000
I3325000
tp689
F0.33793
s(I3365000
I3455000
tp690
F0.76827
s(I3260000
I3325000
tp691
F1.1857
s(I3105000
I3230000
tp692
F1.0191
s(I3105000
I3480000
tp693
F0.74337
s(I3210000
I3400000
tp694
F0.48278
s(I3255000
I3465000
tp695
F0.53523
s(I3230000
I3410000
tp696
F0.50132
s(I3110000
I3200000
tp697
F0.070807
s(I3120000
I3305000
tp698
F-0.96686
s(I3130000
I3295000
tp699
F0.69903
s(I3075000
I3305000
tp700
F-0.23292
s(I3085000
I3225000
tp701
F1.8137
s(I3090000
I3190000
tp702
F-1.7026
s(I3105000
I3165000
tp703
F0.71614
s(I3230000
I3485000
tp704
F0.74647
s(I3310000
I3325000
tp705
F1.0579
s(I3245000
I3415000
tp706
F0.60074
s(I3250000
I3485000
tp707
F1.1844
s(I3090000
I3310000
tp708
F-0.76616
s(I3355000
I3430000
tp709
F0.24013
s(I3115000
I3480000
tp710
F0.52721
s(I3170000
I3455000
tp711
F0.78578
s(I3120000
I3205000
tp712
F0.35258
s(I3200000
I3270000
tp713
F-0.31723
s(I3200000
I3280000
tp714
F0.17671
s(I3030000
I3450000
tp715
F-0.42183
s(I3410000
I3435000
tp716
F1.1663
s(I3260000
I3295000
tp717
F1.1551
s(I3330000
I3485000
tp718
F1.2071
s(I3040000
I3320000
tp719
F-0.11599
s(I3385000
I3465000
tp720
F-0.83295
s(I3045000
I3320000
tp721
F0.3071
s(I3130000
I3435000
tp722
F0.096878
s(I3030000
I3055000
tp723
F-2.6633
s(I3090000
I3170000
tp724
F0.71519
s(I3195000
I3490000
tp725
F0.17273
s(I3110000
I3185000
tp726
F-0.098459
s(I3415000
I3470000
tp727
F1.0841
s(I3010000
I3040000
tp728
F-1.4199
s(I3225000
I3465000
tp729
F0.65923
s(I3190000
I3330000
tp730
F0.3323
s(I3070000
I3355000
tp731
F-1.0816
s(I3335000
I3485000
tp732
F0.45442
s(I3025000
I3330000
tp733
F-0.24533
s(I3170000
I3250000
tp734
F0.042087
s(I3005000
I3415000
tp735
F0.36023
s(I3180000
I3250000
tp736
F-0.11731
s(I3215000
I3450000
tp737
F0.38412
s(I3105000
I3385000
tp738
F0.11097
s(I3435000
I3455000
tp739
F0.99664
s(I3045000
I3080000
tp740
F0.4836
s(I3335000
I3380000
tp741
F0.69628
s(I3125000
I3365000
tp742
F0.44595
s(I3130000
I3170000
tp743
F1.516
s(I3415000
I3445000
tp744
F1.0916
s(I3095000
I3370000
tp745
F0.64541
s(I3375000
I3390000
tp746
F0.86273
s(I3085000
I3430000
tp747
F-0.113
s(I3075000
I3245000
tp748
F0.88073
s(I3195000
I3205000
tp749
F0.51702
s(I3195000
I3470000
tp750
F-0.03121
s(I3235000
I3300000
tp751
F0.21255
s(I3290000
I3435000
tp752
F0.27035
s(I3085000
I3170000
tp753
F1.0772
s(I3080000
I3375000
tp754
F-0.053456
s(I3250000
I3270000
tp755
F0.65353
s(I3215000
I3355000
tp756
F1.3199
s(I3240000
I3465000
tp757
F0.95212
s(I3005000
I3120000
tp758
F0.13678
s(I3160000
I3210000
tp759
F-0.93534
s(I3075000
I3320000
tp760
F-0.80732
s(I3225000
I3305000
tp761
F0.58057
s(I3040000
I3400000
tp762
F1.1483
s(I3330000
I3400000
tp763
F1.0822
s(I3115000
I3390000
tp764
F0.41987
s(I3250000
I3475000
tp765
F1.3594
s(I3165000
I3355000
tp766
F-0.47665
s(I3115000
I3410000
tp767
F-0.16655
s(I3180000
I3245000
tp768
F0.51667
s(I3135000
I3165000
tp769
F0.39875
s(I3290000
I3355000
tp770
F0.8816
s(I3035000
I3380000
tp771
F0.48745
s(I3310000
I3400000
tp772
F0.57805
s(I3035000
I3395000
tp773
F0.54059
s(I3075000
I3490000
tp774
F-0.43009
s(I3040000
I3460000
tp775
F-0.15348
s(I3290000
I3430000
tp776
F0.25
s(I3075000
I3390000
tp777
F-1.1094
s(I3195000
I3355000
tp778
F0.30473
s(I3090000
I3140000
tp779
F1.3686
s(I3025000
I3465000
tp780
F-0.23326
s(I3205000
I3265000
tp781
F-0.34427
s(I3255000
I3380000
tp782
F-0.48675
s(I3195000
I3415000
tp783
F0.53216
s(I3105000
I3415000
tp784
F-1.0445
s(I3355000
I3405000
tp785
F0.69427
s(I3135000
I3440000
tp786
F0.55315
s(I3425000
I3460000
tp787
F0.0039852
s(I3135000
I3215000
tp788
F-0.69833
s(I3075000
I3420000
tp789
F0.0070916
s(I3405000
I3425000
tp790
F1.1682
s(I3285000
I3390000
tp791
F0.37593
s(I3415000
I3480000
tp792
F1.7331
s(I3315000
I3385000
tp793
F1.7486
s(I3115000
I3205000
tp794
F-0.49985
s(I3125000
I3430000
tp795
F0.78129
s(I3365000
I3390000
tp796
F0.45566
s(I3085000
I3300000
tp797
F-0.42619
s(I3075000
I3295000
tp798
F-0.23155
s(I3140000
I3360000
tp799
F-0.0024391
s(I3385000
I3455000
tp800
F1.0822
s(I3085000
I3450000
tp801
F0.52721
s(I3070000
I3320000
tp802
F0.27664
s(I3230000
I3430000
tp803
F-1.234
s(I3185000
I3275000
tp804
F-0.88028
s(I3270000
I3325000
tp805
F0.085634
s(I3220000
I3290000
tp806
F0.4158
s(I3025000
I3335000
tp807
F1.0447
s(I3115000
I3305000
tp808
F1.4422
s(I3055000
I3205000
tp809
F0.36827
s(I3375000
I3435000
tp810
F0.65376
s(I3130000
I3265000
tp811
F0.41511
s(I3400000
I3445000
tp812
F0.060534
s(I3135000
I3265000
tp813
F0.99427
s(I3115000
I3405000
tp814
F0.34189
s(I3050000
I3085000
tp815
F1.203
s(I3080000
I3430000
tp816
F-0.58701
s(I3240000
I3255000
tp817
F0.55611
s(I3040000
I3330000
tp818
F-0.071938
s(I3355000
I3375000
tp819
F0.75646
s(I3250000
I3300000
tp820
F0.97524
s(I3390000
I3460000
tp821
F0.88228
s(I3195000
I3485000
tp822
F-0.38231
s(I3095000
I3285000
tp823
F-0.47665
s(I3030000
I3185000
tp824
F-0.53665
s(I3290000
I3465000
tp825
F1.1165
s(I3375000
I3480000
tp826
F-0.14539
s(I3285000
I3320000
tp827
F0.33972
s(I3245000
I3465000
tp828
F0.22668
s(I3085000
I3195000
tp829
F0.25094
s(I3065000
I3290000
tp830
F-0.16803
s(I3005000
I3165000
tp831
F-0.48918
s(I3235000
I3465000
tp832
F-0.62463
s(I3275000
I3480000
tp833
F1.5037
s(I3100000
I3125000
tp834
F0.10033
s(I3110000
I3460000
tp835
F-0.46433
s(I3035000
I3335000
tp836
F0.53209
s(I3005000
I3460000
tp837
F0.47852
s(I3225000
I3355000
tp838
F0.48316
s(I3380000
I3420000
tp839
F0.7714
s(I3090000
I3105000
tp840
F-0.16865
s(I3110000
I3420000
tp841
F8.2641e-05
s(I3180000
I3205000
tp842
F1.2847
s(I3125000
I3170000
tp843
F2.0737
s(I3300000
I3415000
tp844
F0.26563
s(I3105000
I3295000
tp845
F0.099005
s(I3055000
I3080000
tp846
F2.1533
s(I3080000
I3440000
tp847
F0.17596
s(I3205000
I3365000
tp848
F0.21651
s(I3200000
I3250000
tp849
F0.35711
s(I3130000
I3185000
tp850
F0.29583
s(I3280000
I3440000
tp851
F1.9807
s(I3110000
I3205000
tp852
F-0.18938
s(I3245000
I3275000
tp853
F4.8154
s(I3095000
I3240000
tp854
F-1.3002
s(I3165000
I3300000
tp855
F0.25991
s(I3125000
I3270000
tp856
F-0.028801
s(I3360000
I3485000
tp857
F-0.09048
s(I3120000
I3375000
tp858
F0.20307
s(I3090000
I3400000
tp859
F-1.1606
s(I3170000
I3180000
tp860
F-1.5115
s(I3195000
I3220000
tp861
F0.060854
s(I3130000
I3385000
tp862
F-0.66637
s(I3110000
I3375000
tp863
F0.47717
s(I3100000
I3320000
tp864
F0.83765
s(I3090000
I3455000
tp865
F0.52721
s(I3370000
I3410000
tp866
F0.55865
s(I3040000
I3055000
tp867
F0.41673
s(I3085000
I3360000
tp868
F0.98372
s(I3080000
I3170000
tp869
F0.57805
s(I3275000
I3370000
tp870
F2.951
s(I3140000
I3230000
tp871
F-0.56325
s(I3075000
I3380000
tp872
F0.43908
s(I3400000
I3465000
tp873
F0.94243
s(I3445000
I3455000
tp874
F0.73795
s(I3220000
I3445000
tp875
F0.54479
s(I3040000
I3415000
tp876
F2.7826
s(I3480000
I3490000
tp877
F0.37644
s(I3280000
I3330000
tp878
F0.24472
s(I3180000
I3390000
tp879
F-0.35125
s(I3175000
I3305000
tp880
F1.5054
s(I3045000
I3330000
tp881
F0.016852
s(I3195000
I3480000
tp882
F-0.20284
s(I3035000
I3225000
tp883
F-0.38071
s(I3090000
I3405000
tp884
F1.1475
s(I3225000
I3380000
tp885
F0.24802
s(I3175000
I3450000
tp886
F-0.59506
s(I3180000
I3230000
tp887
F-0.4296
s(I3205000
I3430000
tp888
F0.035633
s(I3195000
I3380000
tp889
F0.2548
s(I3025000
I3125000
tp890
F-0.4725
s(I3280000
I3460000
tp891
F0.97266
s(I3245000
I3355000
tp892
F0.4115
s(I3095000
I3355000
tp893
F-0.20478
s(I3235000
I3470000
tp894
F1.7847
s(I3080000
I3165000
tp895
F-0.63551
s(I3075000
I3095000
tp896
F0.001628
s(I3040000
I3315000
tp897
F-0.03121
s(I3170000
I3395000
tp898
F-0.066198
s(I3135000
I3190000
tp899
F0.19073
s(I3035000
I3105000
tp900
F-1.1169
s(I3305000
I3440000
tp901
F1.1135
s(I3310000
I3480000
tp902
F0.60074
s(I3400000
I3450000
tp903
F1.7619
s(I3380000
I3425000
tp904
F-0.098401
s(I3180000
I3385000
tp905
F-0.38536
s(I3105000
I3470000
tp906
F0.18148
s(I3210000
I3435000
tp907
F0.44296
s(I3005000
I3400000
tp908
F0.97891
s(I3355000
I3470000
tp909
F0.072356
s(I3130000
I3365000
tp910
F-0.21611
s(I3230000
I3285000
tp911
F-0.86024
s(I3220000
I3355000
tp912
F1.0359
s(I3195000
I3275000
tp913
F-1.1695
s(I3285000
I3465000
tp914
F1.3497
s(I3135000
I3475000
tp915
F-0.13006
s(I3315000
I3405000
tp916
F0.57805
s(I3225000
I3240000
tp917
F0.3331
s(I3025000
I3295000
tp918
F0.50254
s(I3095000
I3185000
tp919
F0.45124
s(I3030000
I3325000
tp920
F0.17273
s(I3105000
I3465000
tp921
F-0.91795
s(I3230000
I3460000
tp922
F0.94222
s(I3435000
I3450000
tp923
F0.72336
s(I3005000
I3470000
tp924
F0.20636
s(I3265000
I3435000
tp925
F0.13409
s(I3200000
I3300000
tp926
F0.45007
s(I3380000
I3435000
tp927
F0.55857
s(I3250000
I3285000
tp928
F0.81933
s(I3075000
I3215000
tp929
F0.57919
s(I3045000
I3115000
tp930
F0.68236
s(I3310000
I3330000
tp931
F0.65353
s(I3230000
I3295000
tp932
F1.1249
s(I3090000
I3370000
tp933
F0.22445
s(I3025000
I3085000
tp934
F0.77852
s(I3070000
I3465000
tp935
F1.1123
s(I3080000
I3395000
tp936
F0.80901
s(I3205000
I3305000
tp937
F0.68071
s(I3230000
I3260000
tp938
F0.74515
s(I3235000
I3435000
tp939
F1.273
s(I3100000
I3415000
tp940
F-0.77083
s(I3165000
I3190000
tp941
F-0.68927
s(I3415000
I3440000
tp942
F0.21877
s(I3235000
I3485000
tp943
F0.48812
s(I3110000
I3430000
tp944
F-0.51667
s(I3260000
I3370000
tp945
F0.89315
s(I3210000
I3365000
tp946
F1.3814
s(I3245000
I3420000
tp947
F0.55236
s(I3235000
I3405000
tp948
F2.0007
s(I3265000
I3425000
tp949
F1.4515
s(I3375000
I3455000
tp950
F-0.025223
s(I3025000
I3070000
tp951
F0.060534
s(I3330000
I3415000
tp952
F0.87957
s(I3210000
I3405000
tp953
F0.4289
s(I3215000
I3375000
tp954
F0.9222
s(I3130000
I3210000
tp955
F-0.15984
s(I3120000
I3310000
tp956
F-0.38071
s(I3275000
I3455000
tp957
F-0.3471
s(I3200000
I3460000
tp958
F0.12345
s(I3205000
I3465000
tp959
F0.56109
s(I3400000
I3460000
tp960
F0.71614
s(I3360000
I3405000
tp961
F1.5439
s(I3380000
I3450000
tp962
F0.88228
s(I3225000
I3315000
tp963
F-0.49985
s(I3140000
I3330000
tp964
F-0.47665
s(I3255000
I3415000
tp965
F1.0986
s(I3065000
I3120000
tp966
F-0.54495
s(I3265000
I3410000
tp967
F-0.6271
s(I3265000
I3465000
tp968
F0.9944
s(I3440000
I3465000
tp969
F0.41618
s(I3185000
I3395000
tp970
F0.53523
s(I3125000
I3210000
tp971
F0.023217
s(I3420000
I3440000
tp972
F0.72215
s(I3065000
I3390000
tp973
F-0.062249
s(I3130000
I3410000
tp974
F-0.34296
s(I3045000
I3375000
tp975
F0.30889
s(I3180000
I3190000
tp976
F1.1196
s(I3065000
I3135000
tp977
F-1.65
s(I3175000
I3440000
tp978
F-1.2867
s(I3220000
I3325000
tp979
F0.97173
s(I3300000
I3470000
tp980
F2.1873
s(I3065000
I3205000
tp981
F-0.57297
s(I3105000
I3115000
tp982
F0.93879
s(I3270000
I3305000
tp983
F-0.37971
s(I3080000
I3385000
tp984
F-0.47347
s(I3085000
I3435000
tp985
F-0.46433
s(I3035000
I3095000
tp986
F0.90327
s(I3380000
I3480000
tp987
F1.757
s(I3125000
I3320000
tp988
F0.7193
s(I3115000
I3200000
tp989
F-0.10853
s(I3330000
I3405000
tp990
F0.10469
s(I3225000
I3265000
tp991
F1.3033
s(I3285000
I3355000
tp992
F0.21588
s(I3045000
I3295000
tp993
F1.0168
s(I3035000
I3475000
tp994
F-0.36275
s(I3045000
I3360000
tp995
F0.019092
s(I3140000
I3190000
tp996
F0.076144
s(I3095000
I3190000
tp997
F0.42337
s(I3070000
I3220000
tp998
F0.71285
s(I3130000
I3375000
tp999
F0.78974
s(I3100000
I3200000
tp1000
F-0.70314
s(I3270000
I3330000
tp1001
F0.40426
s(I3095000
I3450000
tp1002
F0.28589
s(I3360000
I3435000
tp1003
F0.78187
s(I3395000
I3455000
tp1004
F1.9013
s(I3235000
I3440000
tp1005
F-0.58421
s(I3065000
I3140000
tp1006
F0.64644
s(I3065000
I3295000
tp1007
F-0.13499
s(I3320000
I3400000
tp1008
F0.58057
s(I3275000
I3290000
tp1009
F1.4481
s(I3200000
I3290000
tp1010
F1.0853
s(I3220000
I3230000
tp1011
F0.45677
s(I3110000
I3445000
tp1012
F0.34009
s(I3035000
I3085000
tp1013
F0.69427
s(I3120000
I3190000
tp1014
F0.68236
s(I3140000
I3420000
tp1015
F0.90534
s(I3290000
I3470000
tp1016
F0.50132
s(I3240000
I3405000
tp1017
F0.78734
s(I3190000
I3290000
tp1018
F1.4495
s(I3175000
I3290000
tp1019
F0.52333
s(I3135000
I3400000
tp1020
F-1.0662
s(I3265000
I3360000
tp1021
F1.4957
s(I3115000
I3235000
tp1022
F0.16674
s(I3100000
I3410000
tp1023
F-0.92844
s(I3185000
I3360000
tp1024
F1.0225
s(I3200000
I3475000
tp1025
F0.53264
s(I3090000
I3355000
tp1026
F-0.18428
s(I3195000
I3330000
tp1027
F0.7255
s(I3230000
I3405000
tp1028
F0.74042
s(I3080000
I3450000
tp1029
F0.46367
s(I3190000
I3230000
tp1030
F-0.18595
s(I3355000
I3410000
tp1031
F0.34838
s(I3105000
I3195000
tp1032
F0.38784
s(I3260000
I3455000
tp1033
F-0.15192
s(I3285000
I3335000
tp1034
F0.52569
s(I3285000
I3435000
tp1035
F0.799
s(I3130000
I3255000
tp1036
F0.30579
s(I3090000
I3415000
tp1037
F-0.39554
s(I3205000
I3215000
tp1038
F0.93879
s(I3300000
I3395000
tp1039
F1.1893
s(I3165000
I3420000
tp1040
F-0.014291
s(I3200000
I3400000
tp1041
F-0.1198
s(I3030000
I3335000
tp1042
F0.55315
s(I3285000
I3460000
tp1043
F1.4927
s(I3460000
I3490000
tp1044
F-0.20746
s(I3235000
I3255000
tp1045
F-0.85614
s(I3250000
I3360000
tp1046
F0.49177
s(I3260000
I3335000
tp1047
F2.0008
s(I3270000
I3335000
tp1048
F0.82078
s(I3235000
I3400000
tp1049
F-0.095709
s(I3290000
I3310000
tp1050
F0.72215
s(I3105000
I3175000
tp1051
F0.21588
s(I3180000
I3240000
tp1052
F0.71614
s(I3190000
I3210000
tp1053
F-0.30717
s(I3335000
I3450000
tp1054
F0.4589
s(I3230000
I3325000
tp1055
F1.3425
s(I3465000
I3490000
tp1056
F0.41618
s(I3170000
I3370000
tp1057
F-0.3055
s(I3030000
I3460000
tp1058
F0.14121
s(I3005000
I3140000
tp1059
F-0.28327
s(I3110000
I3240000
tp1060
F-0.87982
s(I3370000
I3405000
tp1061
F0.53156
s(I3140000
I3250000
tp1062
F-0.87293
s(I3330000
I3455000
tp1063
F0.54355
s(I3025000
I3190000
tp1064
F-0.27232
s(I3135000
I3380000
tp1065
F0.47033
s(I3105000
I3440000
tp1066
F0.34009
s(I3085000
I3215000
tp1067
F-0.70944
s(I3050000
I3090000
tp1068
F0.61184
s(I3030000
I3330000
tp1069
F-0.26458
s(I3200000
I3450000
tp1070
F0.17091
s(I3090000
I3185000
tp1071
F1.4957
s(I3375000
I3450000
tp1072
F0.57872
s(I3105000
I3140000
tp1073
F2.6898
s(I3220000
I3395000
tp1074
F-0.011831
s(I3210000
I3425000
tp1075
F1.0893
s(I3065000
I3460000
tp1076
F-0.48847
s(I3025000
I3200000
tp1077
F-0.38796
s(I3090000
I3200000
tp1078
F0.7326
s(I3295000
I3460000
tp1079
F-0.27232
s(I3395000
I3420000
tp1080
F0.69254
s(I3100000
I3395000
tp1081
F-0.16655
s(I3115000
I3485000
tp1082
F-0.53612
s(I3310000
I3450000
tp1083
F0.4146
s(I3220000
I3295000
tp1084
F0.71416
s(I3060000
I3090000
tp1085
F0.87506
s(I3195000
I3270000
tp1086
F-0.70792
s(I3225000
I3360000
tp1087
F0.8807
s(I3135000
I3205000
tp1088
F0.4158
s(I3085000
I3405000
tp1089
F-0.40578
s(I3075000
I3465000
tp1090
F-0.10296
s(I3245000
I3330000
tp1091
F0.35258
s(I3085000
I3260000
tp1092
F0.64639
s(I3100000
I3295000
tp1093
F-0.24872
s(I3295000
I3325000
tp1094
F1.2648
s(I3165000
I3265000
tp1095
F-0.4725
s(I3250000
I3490000
tp1096
F0.12604
s(I3275000
I3320000
tp1097
F2.9743
s(I3165000
I3440000
tp1098
F0.87095
s(I3205000
I3435000
tp1099
F1.1381
s(I3185000
I3480000
tp1100
F0.85129
s(I3100000
I3190000
tp1101
F-0.37303
s(I3385000
I3395000
tp1102
F-0.30643
s(I3210000
I3335000
tp1103
F1.8116
s(I3330000
I3375000
tp1104
F0.21947
s(I3175000
I3235000
tp1105
F-0.65616
s(I3050000
I3070000
tp1106
F-0.34148
s(I3195000
I3295000
tp1107
F-0.011217
s(I3035000
I3190000
tp1108
F0.24802
s(I3030000
I3305000
tp1109
F1.4348
s(I3125000
I3420000
tp1110
F0.17273
s(I3230000
I3440000
tp1111
F1.3232
s(I3325000
I3480000
tp1112
F0.50958
s(I3385000
I3430000
tp1113
F0.32543
s(I3250000
I3295000
tp1114
F0.3784
s(I3400000
I3475000
tp1115
F0.511
s(I3370000
I3450000
tp1116
F-0.092533
s(I3070000
I3375000
tp1117
F0.89536
s(I3065000
I3215000
tp1118
F0.54056
s(I3320000
I3355000
tp1119
F1.0591
s(I3180000
I3305000
tp1120
F-0.72451
s(I3130000
I3240000
tp1121
F1.6156
s(I3220000
I3490000
tp1122
F1.0568
s(I3025000
I3300000
tp1123
F-0.48229
s(I3405000
I3470000
tp1124
F0.8816
s(I3075000
I3415000
tp1125
F-1.0859
s(I3360000
I3445000
tp1126
F0.28671
s(I3065000
I3240000
tp1127
F-0.95214
s(I3125000
I3140000
tp1128
F1.6432
s(I3090000
I3210000
tp1129
F0.084695
s(I3090000
I3180000
tp1130
F-0.75347
s(I3230000
I3360000
tp1131
F1.4202
s(I3045000
I3110000
tp1132
F0.27337
s(I3095000
I3460000
tp1133
F0.87295
s(I3420000
I3460000
tp1134
F0.71821
s(I3175000
I3190000
tp1135
F0.69548
s(I3045000
I3070000
tp1136
F1.2453
s(I3275000
I3395000
tp1137
F-1.146
s(I3365000
I3485000
tp1138
F0.49493
s(I3075000
I3300000
tp1139
F0.2393
s(I3300000
I3465000
tp1140
F-0.18401
s(I3135000
I3420000
tp1141
F0.016852
s(I3090000
I3295000
tp1142
F-0.58421
s(I3090000
I3480000
tp1143
F-0.22681
s(I3115000
I3445000
tp1144
F-0.042727
s(I3175000
I3380000
tp1145
F-0.087088
s(I3130000
I3205000
tp1146
F0.30785
s(I3315000
I3355000
tp1147
F0.45228
s(I3300000
I3480000
tp1148
F0.21851
s(I3065000
I3375000
tp1149
F-0.34811
s(I3180000
I3370000
tp1150
F-0.5726
s(I3445000
I3485000
tp1151
F0.18635
s(I3130000
I3475000
tp1152
F0.84771
s(I3300000
I3315000
tp1153
F0.19373
s(I3190000
I3475000
tp1154
F0.016852
s(I3245000
I3315000
tp1155
F0.94892
s(I3085000
I3325000
tp1156
F0.12604
s(I3120000
I3165000
tp1157
F0.74925
s(I3180000
I3325000
tp1158
F0.12077
s(I3060000
I3095000
tp1159
F1.6347
s(I3115000
I3220000
tp1160
F-0.070914
s(I3180000
I3410000
tp1161
F0.94222
s(I3235000
I3330000
tp1162
F1.5723
s(I3120000
I3200000
tp1163
F-0.092533
s(I3080000
I3365000
tp1164
F0.56609
s(I3135000
I3460000
tp1165
F-0.28444
s(I3075000
I3205000
tp1166
F-1.9872
s(I3095000
I3165000
tp1167
F0.015965
s(I3085000
I3425000
tp1168
F1.5427
s(I3130000
I3405000
tp1169
F-0.03121
s(I3185000
I3205000
tp1170
F1.6829
s(I3065000
I3305000
tp1171
F-0.08724
s(I3070000
I3210000
tp1172
F-0.65527
s(I3115000
I3425000
tp1173
F0.92861
s(I3200000
I3425000
tp1174
F-0.066198
s(I3185000
I3445000
tp1175
F0.45168
s(I3220000
I3405000
tp1176
F0.34878
s(I3405000
I3415000
tp1177
F0.35635
s(I3190000
I3440000
tp1178
F0.91108
s(I3125000
I3390000
tp1179
F0.036206
s(I3135000
I3195000
tp1180
F0.092369
s(I3030000
I3100000
tp1181
F-0.18395
s(I3130000
I3440000
tp1182
F0.34828
s(I3115000
I3265000
tp1183
F0.023696
s(I3055000
I3065000
tp1184
F8.3699
s(I3185000
I3220000
tp1185
F-0.091938
s(I3025000
I3240000
tp1186
F1.0893
s(I3100000
I3485000
tp1187
F-0.24164
s(I3440000
I3470000
tp1188
F1.5246
s(I3215000
I3335000
tp1189
F0.98722
s(I3270000
I3460000
tp1190
F0.7706
s(I3165000
I3435000
tp1191
F-0.38425
s(I3200000
I3380000
tp1192
F0.97266
s(I3300000
I3425000
tp1193
F1.0983
s(I3265000
I3290000
tp1194
F0.13981
s(I3095000
I3125000
tp1195
F0.0090413
s(I3090000
I3430000
tp1196
F0.46735
s(I3255000
I3275000
tp1197
F2.1632
s(I3090000
I3245000
tp1198
F0.073651
s(I3310000
I3370000
tp1199
F1.2152
s(I3085000
I3485000
tp1200
F1.3173
s(I3300000
I3490000
tp1201
F-0.18882
s(I3100000
I3290000
tp1202
F0.29089
s(I3130000
I3395000
tp1203
F0.36693
s(I3365000
I3470000
tp1204
F0.7483
s(I3170000
I3375000
tp1205
F0.80773
s(I3330000
I3365000
tp1206
F1.0112
s(I3205000
I3455000
tp1207
F0.17091
s(I3040000
I3070000
tp1208
F0.0090413
s(I3200000
I3315000
tp1209
F0.84545
s(I3470000
I3490000
tp1210
F0.51629
s(I3325000
I3360000
tp1211
F1.5388
s(I3200000
I3320000
tp1212
F0.24879
s(I3115000
I3210000
tp1213
F0.19359
s(I3240000
I3455000
tp1214
F1.3924
s(I3250000
I3365000
tp1215
F0.007932
s(I3045000
I3425000
tp1216
F-0.77083
s(I3085000
I3310000
tp1217
F1.4613
s(I3045000
I3135000
tp1218
F0.57805
s(I3280000
I3410000
tp1219
F0.99427
s(I3225000
I3290000
tp1220
F0.39502
s(I3200000
I3210000
tp1221
F0.69778
s(I3270000
I3400000
tp1222
F-0.79463
s(I3120000
I3455000
tp1223
F1.5468
s(I3180000
I3475000
tp1224
F-0.16655
s(I3005000
I3440000
tp1225
F0.2848
s(I3075000
I3135000
tp1226
F-0.5314
s(I3100000
I3225000
tp1227
F-0.48675
s(I3190000
I3360000
tp1228
F0.7874
s(I3285000
I3400000
tp1229
F0.26563
s(I3215000
I3390000
tp1230
F0.27026
s(I3240000
I3425000
tp1231
F-0.02712
s(I3290000
I3425000
tp1232
F0.33751
s(I3410000
I3465000
tp1233
F0.82131
s(I3275000
I3435000
tp1234
F3.4803
s(I3205000
I3270000
tp1235
F-1.0039
s(I3295000
I3310000
tp1236
F0.80698
s(I3390000
I3435000
tp1237
F1.279
s(I3050000
I3095000
tp1238
F-0.57521
s(I3110000
I3130000
tp1239
F1.3397
s(I3245000
I3480000
tp1240
F1.3845
s(I3260000
I3385000
tp1241
F-0.32824
s(I3405000
I3475000
tp1242
F1.0822
s(I3315000
I3335000
tp1243
F1.2711
s(I3190000
I3285000
tp1244
F-0.80214
s(I3030000
I3370000
tp1245
F-0.010579
s(I3135000
I3185000
tp1246
F1.2
s(I3390000
I3425000
tp1247
F0.86729
s(I3375000
I3410000
tp1248
F0.62749
s(I3045000
I3130000
tp1249
F-0.1744
s(I3045000
I3125000
tp1250
F-0.15984
s(I3170000
I3245000
tp1251
F0.10469
s(I3195000
I3440000
tp1252
F1.1092
s(I3190000
I3325000
tp1253
F1.2687
s(I3110000
I3450000
tp1254
F0.22839
s(I3075000
I3290000
tp1255
F0.6852
s(I3220000
I3380000
tp1256
F-0.40096
s(I3130000
I3200000
tp1257
F0.54908
s(I3130000
I3330000
tp1258
F-0.1198
s(I3235000
I3285000
tp1259
F-0.14863
s(I3070000
I3400000
tp1260
F0.30889
s(I3125000
I3360000
tp1261
F0.48416
s(I3230000
I3435000
tp1262
F0.012336
s(I3210000
I3445000
tp1263
F0.28408
s(I3050000
I3075000
tp1264
F-1.7552
s(I3385000
I3435000
tp1265
F0.86285
s(I3105000
I3410000
tp1266
F-0.47347
s(I3200000
I3245000
tp1267
F1.1731
s(I3300000
I3445000
tp1268
F0.86865
s(I3200000
I3260000
tp1269
F1.4647
s(I3135000
I3410000
tp1270
F-0.03121
s(I3320000
I3445000
tp1271
F0.93981
s(I3130000
I3300000
tp1272
F-0.052563
s(I3355000
I3370000
tp1273
F0.61186
s(I3085000
I3290000
tp1274
F-0.78306
s(I3095000
I3435000
tp1275
F0.22839
s(I3270000
I3425000
tp1276
F0.24802
s(I3335000
I3460000
tp1277
F-0.16973
s(I3100000
I3245000
tp1278
F-0.47753
s(I3400000
I3480000
tp1279
F0.98443
s(I3065000
I3395000
tp1280
F-0.042727
s(I3205000
I3480000
tp1281
F0.87095
s(I3195000
I3405000
tp1282
F0.63373
s(I3315000
I3430000
tp1283
F1.3608
s(I3080000
I3370000
tp1284
F-0.27885
s(I3075000
I3120000
tp1285
F1.1201
s(I3205000
I3470000
tp1286
F1.1386
s(I3090000
I3335000
tp1287
F-0.48791
s(I3215000
I3405000
tp1288
F1.1544
s(I3110000
I3125000
tp1289
F0.30523
s(I3250000
I3450000
tp1290
F0.53015
s(I3010000
I3035000
tp1291
F-0.17603
s(I3265000
I3450000
tp1292
F0.2548
s(I3225000
I3270000
tp1293
F2.1267
s(I3005000
I3125000
tp1294
F0.74107
s(I3285000
I3480000
tp1295
F0.8161
s(I3170000
I3485000
tp1296
F0.019092
s(I3335000
I3420000
tp1297
F0.35258
s(I3030000
I3220000
tp1298
F0.67466
s(I3140000
I3415000
tp1299
F1.7731
s(I3090000
I3320000
tp1300
F-0.33085
s(I3040000
I3450000
tp1301
F-0.179
s(I3285000
I3365000
tp1302
F1.2537
s(I3385000
I3460000
tp1303
F0.036977
s(I3265000
I3490000
tp1304
F0.54479
s(I3170000
I3220000
tp1305
F0.019951
s(I3120000
I3240000
tp1306
F0.41288
s(I3190000
I3465000
tp1307
F1.6603
s(I3185000
I3460000
tp1308
F0.87095
s(I3170000
I3385000
tp1309
F0.88727
s(I3295000
I3335000
tp1310
F0.55865
s(I3270000
I3430000
tp1311
F0.83399
s(I3100000
I3330000
tp1312
F-0.33085
s(I3310000
I3460000
tp1313
F0.71285
s(I3130000
I3455000
tp1314
F0.15994
s(I3115000
I3125000
tp1315
F0.33627
s(I3420000
I3470000
tp1316
F0.69427
s(I3125000
I3135000
tp1317
F0.11534
s(I3225000
I3405000
tp1318
F-0.064292
s(I3080000
I3175000
tp1319
F0.57656
s(I3095000
I3205000
tp1320
F-0.55182
s(I3170000
I3225000
tp1321
F-0.072012
s(I3100000
I3170000
tp1322
F0.81564
s(I3060000
I3085000
tp1323
F0.69254
s(I3260000
I3405000
tp1324
F0.12077
s(I3255000
I3300000
tp1325
F0.11351
s(I3080000
I3295000
tp1326
F0.48313
s(I3240000
I3250000
tp1327
F2.0033
s(I3110000
I3190000
tp1328
F1.1191
s(I3180000
I3470000
tp1329
F0.23843
s(I3240000
I3385000
tp1330
F0.34514
s(I3035000
I3385000
tp1331
F0.51712
s(I3325000
I3445000
tp1332
F0.49493
s(I3015000
I3205000
tp1333
F9.4055
s(I3095000
I3110000
tp1334
F-1.1443
s(I3100000
I3220000
tp1335
F0.41288
s(I3005000
I3285000
tp1336
F0.90534
s(I3125000
I3260000
tp1337
F0.25991
s(I3240000
I3485000
tp1338
F0.5768
s(I3085000
I3255000
tp1339
F1.814
s(I3065000
I3115000
tp1340
F-1.2725
s(I3115000
I3300000
tp1341
F-0.30904
s(I3040000
I3100000
tp1342
F1.2152
s(I3395000
I3425000
tp1343
F0.35545
s(I3095000
I3330000
tp1344
F-0.21611
s(I3370000
I3380000
tp1345
F0.91871
s(I3030000
I3405000
tp1346
F1.1257
s(I3130000
I3175000
tp1347
F2.4446
s(I3240000
I3430000
tp1348
F0.96249
s(I3125000
I3475000
tp1349
F-0.096289
s(I3130000
I3235000
tp1350
F2.5357
s(I3140000
I3445000
tp1351
F-0.3594
s(I3110000
I3315000
tp1352
F0.60888
s(I3115000
I3475000
tp1353
F-0.43177
s(I3405000
I3435000
tp1354
F0.26885
s(I3310000
I3425000
tp1355
F0.7166
s(I3115000
I3450000
tp1356
F-0.021915
s(I3120000
I3360000
tp1357
F-0.62043
s(I3005000
I3080000
tp1358
F0.10469
s(I3095000
I3325000
tp1359
F-0.13499
s(I3330000
I3370000
tp1360
F1.6756
s(I3205000
I3325000
tp1361
F1.2334
s(I3070000
I3115000
tp1362
F0.27245
s(I3180000
I3265000
tp1363
F0.5502
s(I3205000
I3440000
tp1364
F0.084007
s(I3185000
I3435000
tp1365
F-0.25205
s(I3025000
I3075000
tp1366
F0.076144
s(I3045000
I3335000
tp1367
F0.031518
s(I3310000
I3440000
tp1368
F0.31279
s(I3165000
I3180000
tp1369
F-1.0328
s(I3250000
I3385000
tp1370
F-1.0593
s(I3265000
I3315000
tp1371
F0.86285
s(I3270000
I3365000
tp1372
F-0.49576
s(I3110000
I3400000
tp1373
F0.44534
s(I3215000
I3445000
tp1374
F1.3339
s(I3195000
I3370000
tp1375
F0.92848
s(I3305000
I3435000
tp1376
F0.39797
s(I3135000
I3415000
tp1377
F0.11097
s(I3190000
I3385000
tp1378
F0.6225
s(I3255000
I3270000
tp1379
F0.054349
s(I3115000
I3160000
tp1380
F1.491
s(I3030000
I3205000
tp1381
F0.36429
s(I3235000
I3445000
tp1382
F0.83072
s(I3105000
I3355000
tp1383
F-0.56927
s(I3265000
I3310000
tp1384
F1.1201
s(I3125000
I3425000
tp1385
F0.6459
s(I3190000
I3480000
tp1386
F-0.071938
s(I3190000
I3200000
tp1387
F-0.20601
s(I3200000
I3435000
tp1388
F0.084007
s(I3025000
I3090000
tp1389
F-1.9771
s(I3090000
I3300000
tp1390
F0.53523
s(I3055000
I3075000
tp1391
F7.2069
s(I3210000
I3275000
tp1392
F-0.94309
s(I3210000
I3315000
tp1393
F0.82278
s(I3095000
I3320000
tp1394
F-1.1863
s(I3390000
I3470000
tp1395
F1.2537
s(I3275000
I3365000
tp1396
F-0.18282
s(I3205000
I3445000
tp1397
F1.1924
s(I3025000
I3480000
tp1398
F0.61525
s(I3085000
I3140000
tp1399
F-0.80769
s(I3450000
I3480000
tp1400
F-0.55387
s(I3115000
I3215000
tp1401
F0.065663
s(I3075000
I3375000
tp1402
F-1.2889
s(I3090000
I3475000
tp1403
F0.76301
s(I3040000
I3410000
tp1404
F1.0885
s(I3100000
I3210000
tp1405
F0.17067
s(I3190000
I3215000
tp1406
F0.060854
s(I3415000
I3425000
tp1407
F-0.14575
s(I3390000
I3430000
tp1408
F0.82458
s(I3375000
I3490000
tp1409
F1.4897
s(I3475000
I3490000
tp1410
F0.72336
s(I3205000
I3280000
tp1411
F0.10469
s(I3385000
I3440000
tp1412
F-0.3873
s(I3400000
I3435000
tp1413
F0.96322
s(I3390000
I3445000
tp1414
F0.92641
s(I3035000
I3450000
tp1415
F-0.43009
s(I3295000
I3415000
tp1416
F-0.0794
s(I3375000
I3460000
tp1417
F1.0113
s(I3130000
I3245000
tp1418
F0.13678
s(I3185000
I3410000
tp1419
F0.64662
s(I3220000
I3385000
tp1420
F0.25751
s(I3100000
I3400000
tp1421
F0.30447
s(I3215000
I3265000
tp1422
F0.18853
s(I3120000
I3320000
tp1423
F0.065901
s(I3245000
I3385000
tp1424
F0.3323
s(I3200000
I3470000
tp1425
F0.39169
s(I3230000
I3465000
tp1426
F-0.016032
s(I3240000
I3470000
tp1427
F0.15879
s(I3235000
I3335000
tp1428
F0.52695
s(I3095000
I3315000
tp1429
F-0.30793
s(I3035000
I3140000
tp1430
F0.0035605
s(I3115000
I3320000
tp1431
F0.21118
s(I3315000
I3455000
tp1432
F0.57919
s(I3300000
I3375000
tp1433
F2.1362
s(I3035000
I3425000
tp1434
F-0.10296
s(I3110000
I3435000
tp1435
F0.49323
s(I3075000
I3170000
tp1436
F0.49997
s(I3125000
I3465000
tp1437
F0.22839
s(I3355000
I3445000
tp1438
F0.57805
s(I3120000
I3395000
tp1439
F-0.03121
s(I3085000
I3465000
tp1440
F-0.003386
s(I3380000
I3405000
tp1441
F0.33722
s(I3335000
I3480000
tp1442
F1.1678
s(I3125000
I3235000
tp1443
F1.4551
s(I3220000
I3265000
tp1444
F0.32543
s(I3260000
I3475000
tp1445
F0.28106
s(I3085000
I3120000
tp1446
F-1.8186
s(I3250000
I3395000
tp1447
F1.1678
s(I3085000
I3470000
tp1448
F0.0095252
s(I3230000
I3265000
tp1449
F1.9224
s(I3100000
I3315000
tp1450
F-0.7293
s(I3380000
I3430000
tp1451
F0.4133
s(I3210000
I3450000
tp1452
F0.23267
s(I3240000
I3415000
tp1453
F-0.011831
s(I3255000
I3475000
tp1454
F0.37942
s(I3175000
I3405000
tp1455
F0.84429
s(I3265000
I3475000
tp1456
F0.23974
s(I3110000
I3365000
tp1457
F1.8333
s(I3045000
I3250000
tp1458
F-0.18651
s(I3090000
I3260000
tp1459
F0.60074
s(I3170000
I3400000
tp1460
F0.55051
s(I3295000
I3305000
tp1461
F-0.26626
s(I3030000
I3225000
tp1462
F0.8161
s(I3130000
I3290000
tp1463
F-0.04812
s(I3035000
I3330000
tp1464
F-0.27964
s(I3130000
I3420000
tp1465
F0.34189
s(I3195000
I3315000
tp1466
F0.82312
s(I3005000
I3425000
tp1467
F0.78575
s(I3275000
I3400000
tp1468
F1.4153
s(I3355000
I3365000
tp1469
F1.1196
s(I3275000
I3460000
tp1470
F2.6041
s(I3235000
I3275000
tp1471
F1.0905
s(I3040000
I3115000
tp1472
F-0.030741
s(I3030000
I3250000
tp1473
F-0.0024391
s(I3335000
I3405000
tp1474
F0.88228
s(I3235000
I3460000
tp1475
F-1.2882
s(I3205000
I3395000
tp1476
F0.86655
s(I3125000
I3255000
tp1477
F0.48316
s(I3260000
I3315000
tp1478
F0.87386
s(I3325000
I3460000
tp1479
F1.3463
s(I3240000
I3295000
tp1480
F-0.43985
s(I3310000
I3470000
tp1481
F-0.04812
s(I3220000
I3330000
tp1482
F1.0537
s(I3120000
I3235000
tp1483
F2.1339
s(I3025000
I3415000
tp1484
F0.64016
s(I3260000
I3365000
tp1485
F0.52488
s(I3165000
I3220000
tp1486
F-0.65005
s(I3090000
I3440000
tp1487
F-0.096289
s(I3125000
I3395000
tp1488
F0.28084
s(I3210000
I3305000
tp1489
F0.80635
s(I3300000
I3385000
tp1490
F-0.1744
s(I3070000
I3105000
tp1491
F0.81933
s(I3140000
I3180000
tp1492
F0.34591
s(I3365000
I3425000
tp1493
F1.0904
s(I3065000
I3260000
tp1494
F1.9777
s(I3230000
I3480000
tp1495
F0.48812
s(I3120000
I3410000
tp1496
F-0.48576
s(I3090000
I3470000
tp1497
F0.25243
s(I3095000
I3120000
tp1498
F-0.25499
s(I3095000
I3405000
tp1499
F0.23221
s(I3180000
I3480000
tp1500
F0.41828
s(I3330000
I3460000
tp1501
F0.99427
s(I3360000
I3425000
tp1502
F0.82078
s(I3135000
I3180000
tp1503
F0.11351
s(I3170000
I3240000
tp1504
F-0.91699
s(I3295000
I3465000
tp1505
F0.88073
s(I3030000
I3360000
tp1506
F-0.27714
s(I3295000
I3450000
tp1507
F0.59677
s(I3085000
I3285000
tp1508
F0.15875
s(I3265000
I3305000
tp1509
F0.45228
s(I3025000
I3205000
tp1510
F-0.25283
s(I3110000
I3175000
tp1511
F1.2465
s(I3210000
I3360000
tp1512
F0.28213
s(I3180000
I3405000
tp1513
F0.74846
s(I3175000
I3315000
tp1514
F-0.90216
s(I3080000
I3485000
tp1515
F0.58879
s(I3105000
I3135000
tp1516
F-0.59717
s(I3285000
I3440000
tp1517
F-0.44947
s(I3300000
I3325000
tp1518
F-0.17603
s(I3310000
I3475000
tp1519
F1.5821
s(I3065000
I3380000
tp1520
F1.0347
s(I3140000
I3175000
tp1521
F0.62749
s(I3300000
I3410000
tp1522
F0.81288
s(I3040000
I3195000
tp1523
F-0.8854
s(I3105000
I3200000
tp1524
F-0.64895
s(I3205000
I3225000
tp1525
F0.72215
s(I3125000
I3195000
tp1526
F-0.51715
s(I3200000
I3430000
tp1527
F0.35465
s(I3165000
I3200000
tp1528
F-0.81136
s(I3070000
I3130000
tp1529
F-0.59378
s(I3025000
I3450000
tp1530
F-0.26925
s(I3080000
I3310000
tp1531
F0.45258
s(I3075000
I3125000
tp1532
F1.7057
s(I3065000
I3210000
tp1533
F1.1678
s(I3105000
I3235000
tp1534
F1.1646
s(I3290000
I3440000
tp1535
F1.3159
s(I3215000
I3250000
tp1536
F0.81933
s(I3085000
I3185000
tp1537
F0.75759
s(I3110000
I3120000
tp1538
F1.1597
s(I3230000
I3320000
tp1539
F0.83168
s(I3315000
I3435000
tp1540
F0.33084
s(I3040000
I3465000
tp1541
F2.4035
s(I3250000
I3310000
tp1542
F0.34188
s(I3040000
I3075000
tp1543
F2.7858
s(I3025000
I3325000
tp1544
F0.87352
s(I3040000
I3295000
tp1545
F0.63779
s(I3080000
I3200000
tp1546
F0.0026471
s(I3315000
I3390000
tp1547
F1.2559
s(I3090000
I3240000
tp1548
F0.28213
s(I3250000
I3265000
tp1549
F0.80698
s(I3130000
I3225000
tp1550
F-0.036193
s(I3120000
I3465000
tp1551
F-0.113
s(I3180000
I3365000
tp1552
F0.72467
s(I3245000
I3455000
tp1553
F0.53523
s(I3225000
I3450000
tp1554
F-0.26986
s(I3290000
I3360000
tp1555
F0.34916
s(I3070000
I3095000
tp1556
F-0.57083
s(I3170000
I3445000
tp1557
F-0.14398
s(I3195000
I3255000
tp1558
F0.77852
s(I3035000
I3080000
tp1559
F0.0075556
s(I3080000
I3300000
tp1560
F0.60854
s(I3025000
I3425000
tp1561
F-0.44388
s(I3175000
I3250000
tp1562
F0.511
s(I3075000
I3335000
tp1563
F-0.31419
s(I3260000
I3305000
tp1564
F1.9148
s(I3115000
I3355000
tp1565
F0.76587
s(I3290000
I3300000
tp1566
F1.6417
s(I3390000
I3485000
tp1567
F0.19359
s(I3035000
I3415000
tp1568
F0.12452
s(I3110000
I3230000
tp1569
F1.0693
s(I3380000
I3415000
tp1570
F0.29175
s(I3240000
I3305000
tp1571
F0.03008
s(I3140000
I3400000
tp1572
F0.12345
s(I3130000
I3450000
tp1573
F0.03776
s(I3200000
I3415000
tp1574
F0.18002
s(I3175000
I3320000
tp1575
F0.27035
s(I3330000
I3470000
tp1576
F0.00311
s(I3105000
I3260000
tp1577
F-1.4957
s(I3420000
I3445000
tp1578
F0.49514
s(I3240000
I3400000
tp1579
F1.6279
s(I3090000
I3445000
tp1580
F0.16304
s(I3400000
I3430000
tp1581
F0.57195
s(I3255000
I3320000
tp1582
F1.1857
s(I3120000
I3475000
tp1583
F0.40874
s(I3285000
I3330000
tp1584
F0.69628
s(I3070000
I3165000
tp1585
F1.1893
s(I3115000
I3135000
tp1586
F-0.066993
s(I3265000
I3380000
tp1587
F0.65218
s(I3260000
I3280000
tp1588
F1.0309
s(I3060000
I3365000
tp1589
F0.43908
s(I3210000
I3325000
tp1590
F0.39448
s(I3185000
I3385000
tp1591
F0.623
s(I3360000
I3455000
tp1592
F1.0361
s(I3040000
I3095000
tp1593
F1.0315
s(I3215000
I3465000
tp1594
F0.59386
s(I3045000
I3410000
tp1595
F-0.50999
s(I3360000
I3430000
tp1596
F0.81564
s(I3070000
I3295000
tp1597
F1.1558
s(I3175000
I3400000
tp1598
F0.64662
s(I3215000
I3455000
tp1599
F0.76587
s(I3085000
I3375000
tp1600
F0.65225
s(I3040000
I3130000
tp1601
F0.70487
s(I3005000
I3435000
tp1602
F0.2759
s(I3055000
I3365000
tp1603
F1.8571
s(I3235000
I3410000
tp1604
F0.45833
s(I3385000
I3415000
tp1605
F0.96166
s(I3005000
I3210000
tp1606
F1.4043
s(I3235000
I3250000
tp1607
F0.3331
s(I3195000
I3260000
tp1608
F0.82078
s(I3185000
I3235000
tp1609
F0.52569
s(I3295000
I3425000
tp1610
F0.56834
s(I3400000
I3415000
tp1611
F0.2216
s(I3405000
I3430000
tp1612
F0.41618
s(I3080000
I3120000
tp1613
F0.55865
s(I3175000
I3370000
tp1614
F1.1065
s(I3415000
I3450000
tp1615
F0.81933
s(I3325000
I3450000
tp1616
F0.54355
s(I3455000
I3475000
tp1617
F0.48198
s(I3430000
I3450000
tp1618
F0.5506
s(I3280000
I3490000
tp1619
F0.23974
s(I3305000
I3400000
tp1620
F-0.87873
s(I3235000
I3270000
tp1621
F1.9704
s(I3100000
I3370000
tp1622
F0.72423
s(I3115000
I3130000
tp1623
F0.50035
s(I3085000
I3295000
tp1624
F-0.94223
s(I3255000
I3370000
tp1625
F0.52333
s(I3190000
I3235000
tp1626
F0.6433
s(I3310000
I3390000
tp1627
F0.7825
s(I3100000
I3445000
tp1628
F0.36736
s(I3065000
I3255000
tp1629
F-1.4361
s(I3325000
I3335000
tp1630
F1.2802
s(I3110000
I3385000
tp1631
F-0.36952
s(I3115000
I3490000
tp1632
F-0.14878
s(I3220000
I3260000
tp1633
F0.55865
s(I3225000
I3475000
tp1634
F0.48812
s(I3045000
I3465000
tp1635
F0.11487
s(I3045000
I3355000
tp1636
F0.34828
s(I3245000
I3335000
tp1637
F0.45124
s(I3165000
I3285000
tp1638
F0.084695
s(I3030000
I3315000
tp1639
F1.2252
s(I3040000
I3090000
tp1640
F-0.20482
s(I3040000
I3355000
tp1641
F0.58332
s(I3135000
I3255000
tp1642
F-1.146
s(I3125000
I3185000
tp1643
F0.21712
s(I3315000
I3380000
tp1644
F1.0641
s(I3205000
I3255000
tp1645
F1.1438
s(I3035000
I3460000
tp1646
F-0.40289
s(I3315000
I3415000
tp1647
F1.0651
s(I3020000
I3030000
tp1648
F0.13542
s(I3220000
I3435000
tp1649
F1.0893
s(I3195000
I3420000
tp1650
F0.44296
s(I3025000
I3385000
tp1651
F-0.55332
s(I3255000
I3405000
tp1652
F1.2297
s(I3040000
I3140000
tp1653
F-1.3951
s(I3120000
I3435000
tp1654
F-0.2066
s(I3130000
I3180000
tp1655
F0.97524
s(I3040000
I3470000
tp1656
F-0.66688
s(I3070000
I3435000
tp1657
F0.29673
s(I3175000
I3205000
tp1658
F0.13894
s(I3210000
I3380000
tp1659
F0.97405
s(I3200000
I3360000
tp1660
F0.48115
s(I3325000
I3405000
tp1661
F0.24402
s(I3270000
I3290000
tp1662
F0.75646
s(I3245000
I3280000
tp1663
F1.203
s(I3335000
I3355000
tp1664
F1.4427
s(I3170000
I3470000
tp1665
F0.6459
s(I3130000
I3465000
tp1666
F0.098752
s(I3025000
I3445000
tp1667
F0.11487
s(I3285000
I3375000
tp1668
F0.38784
s(I3025000
I3390000
tp1669
F-0.74048
s(I3140000
I3310000
tp1670
F0.32075
s(I3140000
I3185000
tp1671
F-0.15138
s(I3085000
I3410000
tp1672
F0.93761
s(I3375000
I3465000
tp1673
F0.70487
s(I3265000
I3430000
tp1674
F0.69903
s(I3255000
I3325000
tp1675
F1.1488
s(I3195000
I3390000
tp1676
F0.9129
s(I3225000
I3335000
tp1677
F-0.23072
s(I3255000
I3440000
tp1678
F1.3825
s(I3190000
I3305000
tp1679
F0.20121
s(I3385000
I3425000
tp1680
F0.34591
s(I3195000
I3265000
tp1681
F-0.25059
s(I3100000
I3130000
tp1682
F0.18224
s(I3255000
I3420000
tp1683
F0.61073
s(I3100000
I3405000
tp1684
F-0.58754
s(I3335000
I3435000
tp1685
F1.0651
s(I3255000
I3285000
tp1686
F0.57195
s(I3265000
I3280000
tp1687
F0.69548
s(I3025000
I3115000
tp1688
F0.19762
s(I3010000
I3030000
tp1689
F-0.89045
s(I3255000
I3400000
tp1690
F0.34514
s(I3210000
I3490000
tp1691
F0.22445
s(I3185000
I3265000
tp1692
F-0.025223
s(I3170000
I3475000
tp1693
F0.78129
s(I3075000
I3285000
tp1694
F-0.25275
s(I3185000
I3200000
tp1695
F0.61186
s(I3075000
I3315000
tp1696
F-0.72707
s(I3165000
I3445000
tp1697
F0.22445
s(I3300000
I3380000
tp1698
F0.64788
s(I3300000
I3455000
tp1699
F0.42239
s(I3165000
I3455000
tp1700
F-0.071938
s(I3110000
I3330000
tp1701
F0.30305
s(I3070000
I3455000
tp1702
F1.0142
s(I3200000
I3355000
tp1703
F0.68395
s(I3215000
I3315000
tp1704
F1.3726
s(I3315000
I3465000
tp1705
F0.799
s(I3410000
I3445000
tp1706
F0.77137
s(I3170000
I3295000
tp1707
F0.068027
s(I3115000
I3415000
tp1708
F0.076851
s(I3180000
I3220000
tp1709
F-0.771
s(I3045000
I3390000
tp1710
F-0.59335
s(I3035000
I3455000
tp1711
F0.24904
s(I3215000
I3255000
tp1712
F0.82458
s(I3125000
I3375000
tp1713
F-0.14631
s(I3005000
I3445000
tp1714
F-0.10378
s(I3100000
I3205000
tp1715
F0.52488
s(I3400000
I3420000
tp1716
F0.13887
s(I3245000
I3295000
tp1717
F1.0876
s(I3365000
I3465000
tp1718
F0.75759
s(I3260000
I3285000
tp1719
F1.6006
s(I3455000
I3485000
tp1720
F1.3514
s(I3085000
I3415000
tp1721
F-1.0976
s(I3210000
I3440000
tp1722
F0.35465
s(I3230000
I3490000
tp1723
F-0.75183
s(I3035000
I3115000
tp1724
F-0.15984
s(I3305000
I3355000
tp1725
F0.24472
s(I3230000
I3245000
tp1726
F0.1101
s(I3180000
I3290000
tp1727
F0.17067
s(I3390000
I3420000
tp1728
F0.91836
s(I3185000
I3485000
tp1729
F0.6459
s(I3410000
I3420000
tp1730
F0.89862
s(I3035000
I3485000
tp1731
F0.177
s(I3320000
I3485000
tp1732
F0.61073
s(I3180000
I3490000
tp1733
F1.1607
s(I3090000
I3110000
tp1734
F0.035939
s(I3015000
I3025000
tp1735
F1.1597
s(I3030000
I3045000
tp1736
F0.94636
s(I3365000
I3415000
tp1737
F1.6496
s(I3125000
I3455000
tp1738
F0.5433
s(I3290000
I3395000
tp1739
F1.9399
s(I3020000
I3035000
tp1740
F0.41673
s(I3305000
I3325000
tp1741
F0.070249
s(I3280000
I3395000
tp1742
F1.2964
s(I3035000
I3360000
tp1743
F0.82652
s(I3395000
I3475000
tp1744
F0.64788
s(I3250000
I3445000
tp1745
F1.2033
s(I3305000
I3465000
tp1746
F-1.1949
s(I3110000
I3250000
tp1747
F-0.079188
s(I3310000
I3385000
tp1748
F0.036977
s(I3030000
I3065000
tp1749
F2.1623
s(I3005000
I3480000
tp1750
F1.1911
s(I3355000
I3425000
tp1751
F0.61572
s(I3310000
I3430000
tp1752
F0.82312
s(I3105000
I3170000
tp1753
F0.57749
s(I3265000
I3370000
tp1754
F0.59936
s(I3260000
I3290000
tp1755
F1.2215
s(I3125000
I3190000
tp1756
F1.0032
s(I3215000
I3415000
tp1757
F1.3658
s(I3085000
I3110000
tp1758
F-0.29447
s(I3135000
I3465000
tp1759
F-0.15993
s(I3195000
I3385000
tp1760
F-0.18882
s(I3140000
I3160000
tp1761
F-0.82183
s(I3245000
I3285000
tp1762
F0.98414
s(I3090000
I3315000
tp1763
F-0.88085
s(I3005000
I3420000
tp1764
F0.10614
s(I3080000
I3320000
tp1765
F0.65923
s(I3230000
I3330000
tp1766
F0.45007
s(I3110000
I3180000
tp1767
F0.81564
s(I3380000
I3485000
tp1768
F0.89725
s(I3195000
I3375000
tp1769
F0.97266
s(I3370000
I3400000
tp1770
F0.44205
s(I3290000
I3380000
tp1771
F0.45124
s(I3045000
I3415000
tp1772
F-0.1612
s(I3200000
I3305000
tp1773
F2.5357
s(I3030000
I3090000
tp1774
F0.8409
s(I3040000
I3120000
tp1775
F-0.90026
s(I3110000
I3405000
tp1776
F0.39891
s(I3140000
I3450000
tp1777
F-0.58025
s(I3410000
I3425000
tp1778
F0.72336
s(I3205000
I3385000
tp1779
F-0.15856
s(I3245000
I3405000
tp1780
F0.1283
s(I3115000
I3365000
tp1781
F-0.25205
s(I3225000
I3460000
tp1782
F1.6846
s(I3185000
I3260000
tp1783
F1.3236
s(I3075000
I3200000
tp1784
F-1.1208
s(I3185000
I3490000
tp1785
F1.1235
s(I3005000
I3305000
tp1786
F0.19066
s(I3075000
I3190000
tp1787
F-0.056493
s(I3235000
I3430000
tp1788
F1.9777
s(I3415000
I3460000
tp1789
F1.279
s(I3320000
I3475000
tp1790
F0.85833
s(I3065000
I3400000
tp1791
F-0.26325
s(I3080000
I3135000
tp1792
F-0.80769
s(I3455000
I3480000
tp1793
F0.49514
s(I3135000
I3335000
tp1794
F-0.6769
s(I3010000
I3130000
tp1795
F0.24879
s(I3275000
I3425000
tp1796
F-0.062449
s(I3280000
I3445000
tp1797
F0.69903
s(I3355000
I3440000
tp1798
F0.15496
s(I3180000
I3200000
tp1799
F-0.51303
s(I3130000
I3445000
tp1800
F0.019092
s(I3460000
I3475000
tp1801
F1.1136
s(I3215000
I3470000
tp1802
F0.31175
s(I3440000
I3485000
tp1803
F0.11351
s(I3285000
I3395000
tp1804
F1.6959
s(I3070000
I3125000
tp1805
F-0.96534
s(I3095000
I3180000
tp1806
F-0.4379
s(I3165000
I3255000
tp1807
F0.0074013
s(I3130000
I3480000
tp1808
F-0.096289
s(I3040000
I3065000
tp1809
F3.6536
s(I3305000
I3460000
tp1810
F-0.62384
s(I3215000
I3440000
tp1811
F0.85029
s(I3335000
I3395000
tp1812
F1.0904
s(I3200000
I3485000
tp1813
F2.4335
s(I3140000
I3335000
tp1814
F0.33209
s(I3270000
I3490000
tp1815
F0.99039
s(I3085000
I3180000
tp1816
F1.9553
s(I3205000
I3460000
tp1817
F0.85515
s(I3195000
I3210000
tp1818
F1.0579
s(I3380000
I3445000
tp1819
F0.27337
s(I3040000
I3380000
tp1820
F-0.96644
s(I3235000
I3295000
tp1821
F1.028
s(I3175000
I3210000
tp1822
F-0.42767
s(I3260000
I3330000
tp1823
F1.2155
s(I3105000
I3205000
tp1824
F0.21942
s(I3085000
I3330000
tp1825
F0.5768
s(I3225000
I3300000
tp1826
F1.1205
s(I3265000
I3485000
tp1827
F1.1431
s(I3285000
I3455000
tp1828
F-0.23922
s(I3165000
I3360000
tp1829
F-0.53912
s(I3210000
I3455000
tp1830
F1.1092
s(I3250000
I3380000
tp1831
F0.31279
s(I3425000
I3485000
tp1832
F1.4647
s(I3295000
I3420000
tp1833
F0.6228
s(I3265000
I3460000
tp1834
F1.2033
s(I3250000
I3435000
tp1835
F1.6644
s(I3110000
I3370000
tp1836
F0.56109
s(I3175000
I3255000
tp1837
F0.98443
s(I3430000
I3460000
tp1838
F0.57195
s(I3320000
I3380000
tp1839
F0.77852
s(I3410000
I3455000
tp1840
F0.27245
s(I3040000
I3105000
tp1841
F-1.9163
s(I3090000
I3290000
tp1842
F1.9229
s(I3380000
I3475000
tp1843
F0.65316
s(I3080000
I3205000
tp1844
F-0.011227
s(I3075000
I3330000
tp1845
F-0.12297
s(I3050000
I3365000
tp1846
F0.80901
s(I3295000
I3370000
tp1847
F0.37557
s(I3385000
I3480000
tp1848
F2.1085
s(I3420000
I3480000
tp1849
F0.59139
s(I3085000
I3305000
tp1850
F0.99039
s(I3040000
I3205000
tp1851
F-0.18401
s(I3065000
I3440000
tp1852
F0.99827
s(I3260000
I3485000
tp1853
F0.74846
s(I3170000
I3195000
tp1854
F-0.25499
s(I3035000
I3465000
tp1855
F0.0065315
s(I3265000
I3480000
tp1856
F0.28106
s(I3075000
I3180000
tp1857
F-1.188
s(I3190000
I3255000
tp1858
F0.94243
s(I3080000
I3115000
tp1859
F0.24379
s(I3440000
I3475000
tp1860
F0.96322
s(I3240000
I3380000
tp1861
F0.4969
s(I3235000
I3425000
tp1862
F0.19495
s(I3305000
I3490000
tp1863
F0.81865
s(I3335000
I3370000
tp1864
F1.1551
s(I3070000
I3100000
tp1865
F1.4813
s(I3420000
I3435000
tp1866
F0.72336
s(I3100000
I3265000
tp1867
F-0.18401
s(I3280000
I3310000
tp1868
F1.3514
s(I3080000
I3285000
tp1869
F0.11176
s(I3220000
I3425000
tp1870
F-0.48479
s(I3230000
I3335000
tp1871
F-0.89013
s(I3245000
I3375000
tp1872
F0.99427
s(I3415000
I3455000
tp1873
F0.7714
s(I3220000
I3450000
tp1874
F1.4319
s(I3140000
I3355000
tp1875
F-0.32516
s(I3325000
I3400000
tp1876
F0.24013
s(I3140000
I3325000
tp1877
F-0.21507
s(I3250000
I3370000
tp1878
F0.65903
s(I3040000
I3190000
tp1879
F-1.3546
s(I3005000
I3205000
tp1880
F0.34445
s(I3295000
I3400000
tp1881
F0.45041
s(I3100000
I3165000
tp1882
F1.7331
s(I3135000
I3490000
tp1883
F-0.57408
s(I3005000
I3490000
tp1884
F0.43345
s(I3290000
I3475000
tp1885
F1.2885
s(I3070000
I3175000
tp1886
F2.8336
s(I3085000
I3115000
tp1887
F-1.2467
s(I3170000
I3490000
tp1888
F-0.18401
s(I3130000
I3380000
tp1889
F0.065167
s(I3030000
I3445000
tp1890
F0.10614
s(I3135000
I3445000
tp1891
F1.0447
s(I3220000
I3280000
tp1892
F1.028
s(I3085000
I3445000
tp1893
F1.1483
s(I3175000
I3245000
tp1894
F-0.25059
s(I3005000
I3430000
tp1895
F-0.001981
s(I3065000
I3085000
tp1896
F1.923
s(I3360000
I3385000
tp1897
F-0.018106
s(I3385000
I3410000
tp1898
F1.8375
s(I3015000
I3030000
tp1899
F-1.5624
s(I3135000
I3210000
tp1900
F0.91731
s(I3190000
I3405000
tp1901
F0.28106
s(I3125000
I3250000
tp1902
F0.068027
s(I3005000
I3475000
tp1903
F0.78551
s(I3305000
I3445000
tp1904
F0.4969
s(I3175000
I3215000
tp1905
F0.93095
s(I3200000
I3325000
tp1906
F0.54355
s(I3130000
I3315000
tp1907
F0.34878
s(I3125000
I3325000
tp1908
F0.34445
s(I3115000
I3440000
tp1909
F-0.28444
s(I3140000
I3245000
tp1910
F0.078035
s(I3070000
I3265000
tp1911
F-0.15192
s(I3200000
I3395000
tp1912
F1.1065
s(I3030000
I3395000
tp1913
F-0.16425
s(I3255000
I3265000
tp1914
F0.85846
s(I3110000
I3260000
tp1915
F0.71285
s(I3190000
I3395000
tp1916
F0.60888
s(I3360000
I3460000
tp1917
F0.52695
s(I3270000
I3445000
tp1918
F2.0569
s(I3365000
I3490000
tp1919
F1.3361
s(I3385000
I3490000
tp1920
F0.97173
s(I3245000
I3410000
tp1921
F1.4055
s(I3105000
I3290000
tp1922
F0.53672
s(I3095000
I3375000
tp1923
F0.45141
s(I3110000
I3490000
tp1924
F1.0199
s(I3025000
I3235000
tp1925
F-0.74524
s(I3175000
I3225000
tp1926
F0.019951
s(I3105000
I3320000
tp1927
F1.5945
s(I3025000
I3180000
tp1928
F-0.53665
s(I3105000
I3225000
tp1929
F-0.89988
s(I3045000
I3195000
tp1930
F0.62671
s(I3405000
I3465000
tp1931
F1.2152
s(I3035000
I3135000
tp1932
F0.68071
s(I3025000
I3105000
tp1933
F0.91712
s(I3220000
I3485000
tp1934
F1.0284
s(I3395000
I3445000
tp1935
F0.24472
s(I3225000
I3295000
tp1936
F1.3488
s(I3065000
I3090000
tp1937
F-1.9921
s(I3120000
I3215000
tp1938
F0.42337
s(I3065000
I3245000
tp1939
F-0.72417
s(I3110000
I3235000
tp1940
F0.22653
s(I3205000
I3220000
tp1941
F-0.0014019
s(I3365000
I3410000
tp1942
F0.0075556
s(I3105000
I3375000
tp1943
F-0.93849
s(I3205000
I3285000
tp1944
F0.17671
s(I3380000
I3465000
tp1945
F1.4724
s(I3295000
I3375000
tp1946
F0.64788
s(I3430000
I3475000
tp1947
F1.2261
s(I3230000
I3355000
tp1948
F1.0983
s(I3070000
I3395000
tp1949
F-0.61773
s(I3295000
I3360000
tp1950
F0.51667
s(I3210000
I3220000
tp1951
F0.31618
s(I3005000
I3215000
tp1952
F0.23974
s(I3210000
I3480000
tp1953
F1.2785
s(I3135000
I3480000
tp1954
F0.36736
s(I3315000
I3400000
tp1955
F0.41846
s(I3030000
I3120000
tp1956
F0.89508
s(I3065000
I3455000
tp1957
F-0.96993
s(I3375000
I3385000
tp1958
F-0.12567
s(I3095000
I3385000
tp1959
F0.13497
s(I3270000
I3375000
tp1960
F1.4186
s(I3115000
I3250000
tp1961
F0.10472
s(I3040000
I3245000
tp1962
F-0.087088
s(I3095000
I3235000
tp1963
F-0.90216
s(I3045000
I3140000
tp1964
F1.1893
s(I3250000
I3305000
tp1965
F-0.4924
s(I3245000
I3290000
tp1966
F0.80223
s(I3165000
I3205000
tp1967
F-0.34551
s(I3195000
I3335000
tp1968
F2.1428
s(I3230000
I3400000
tp1969
F1.254
s(I3165000
I3475000
tp1970
F0.69648
s(I3045000
I3190000
tp1971
F1.093
s(I3130000
I3490000
tp1972
F0.54059
s(I3250000
I3315000
tp1973
F0.27337
s(I3110000
I3165000
tp1974
F0.71622
s(I3045000
I3100000
tp1975
F0.76876
s(I3005000
I3485000
tp1976
F1.1146
s(I3095000
I3135000
tp1977
F-0.026395
s(I3040000
I3050000
tp1978
F2.1438
s(I3315000
I3470000
tp1979
F0.59677
s(I3360000
I3470000
tp1980
F0.65233
s(I3180000
I3225000
tp1981
F0.48436
s(I3240000
I3460000
tp1982
F0.22668
s(I3045000
I3060000
tp1983
F-0.029277
s(I3440000
I3455000
tp1984
F1.1415
s(I3130000
I3355000
tp1985
F-0.47353
s(I3215000
I3475000
tp1986
F0.88932
s(I3175000
I3300000
tp1987
F1.0191
s(I3080000
I3405000
tp1988
F-0.28444
s(I3265000
I3275000
tp1989
F3.3891
s(I3225000
I3390000
tp1990
F0.1692
s(I3370000
I3485000
tp1991
F0.78103
s(I3290000
I3490000
tp1992
F0.15875
s(I3115000
I3245000
tp1993
F-0.19833
s(I3085000
I3480000
tp1994
F0.44532
s(I3055000
I3095000
tp1995
F-1.4092
s(I3100000
I3480000
tp1996
F0.89196
s(I3355000
I3435000
tp1997
F0.7825
s(I3095000
I3430000
tp1998
F0.94342
s(I3175000
I3445000
tp1999
F0.28084
s(I3305000
I3320000
tp2000
F0.86273
s(I3210000
I3290000
tp2001
F0.84981
s(I3195000
I3445000
tp2002
F1.0168
s(I3080000
I3255000
tp2003
F0.36429
s(I3315000
I3480000
tp2004
F0.52242
s(I3195000
I3475000
tp2005
F0.11097
s(I3115000
I3420000
tp2006
F0.32502
s(I3395000
I3485000
tp2007
F1.0219
s(I3370000
I3445000
tp2008
F0.511
s(I3210000
I3395000
tp2009
F0.2548
s(I3310000
I3490000
tp2010
F0.31278
s(I3100000
I3325000
tp2011
F0.035633
s(I3090000
I3195000
tp2012
F0.37593
s(I3230000
I3240000
tp2013
F-1.4512
s(I3075000
I3405000
tp2014
F-1.2148
s(I3140000
I3385000
tp2015
F-0.1685
s(I3295000
I3475000
tp2016
F1.5383
s(I3190000
I3420000
tp2017
F0.55051
s(I3290000
I3410000
tp2018
F0.65903
s(I3180000
I3310000
tp2019
F-0.45389
s(I3080000
I3355000
tp2020
F-0.59506
s(I3420000
I3475000
tp2021
F1.1892
s(I3190000
I3205000
tp2022
F0.24948
s(I3300000
I3365000
tp2023
F1.5507
s(I3170000
I3210000
tp2024
F0.39909
s(I3310000
I3415000
tp2025
F0.0035605
s(I3255000
I3435000
tp2026
F0.50132
s(I3245000
I3325000
tp2027
F0.042087
s(I3290000
I3485000
tp2028
F2.1713
s(I3120000
I3160000
tp2029
F2.8988
s(I3240000
I3320000
tp2030
F1.9268
s(I3080000
I3425000
tp2031
F-0.113
s(I3075000
I3450000
tp2032
F0.61592
s(I3330000
I3440000
tp2033
F1.7762
s(I3125000
I3380000
tp2034
F0.52911
s(I3110000
I3355000
tp2035
F-0.1685
s(I3290000
I3405000
tp2036
F1.0387
s(I3080000
I3250000
tp2037
F0.7874
s(I3025000
I3195000
tp2038
F-0.33255
s(I3035000
I3220000
tp2039
F-0.59096
s(I3255000
I3355000
tp2040
F0.68071
s(I3190000
I3400000
tp2041
F0.43673
s(I3405000
I3440000
tp2042
F0.19583
s(I3080000
I3420000
tp2043
F-0.24955
s(I3385000
I3470000
tp2044
F0.87957
s(I3005000
I3020000
tp2045
F0.61186
s(I3205000
I3245000
tp2046
F0.079977
s(I3200000
I3390000
tp2047
F1.1544
s(I3140000
I3215000
tp2048
F0.57872
s(I3030000
I3385000
tp2049
F0.16304
s(I3005000
I3040000
tp2050
F-1.1951
s(I3285000
I3445000
tp2051
F0.48115
s(I3170000
I3215000
tp2052
F-0.098401
s(I3280000
I3425000
tp2053
F0.5695
s(I3355000
I3385000
tp2054
F0.52865
s(I3175000
I3460000
tp2055
F0.56609
s(I3045000
I3205000
tp2056
F-0.84202
s(I3230000
I3390000
tp2057
F-1.0184
s(I3070000
I3310000
tp2058
F-0.08724
s(I3275000
I3300000
tp2059
F4.4826
s(I3110000
I3285000
tp2060
F-0.76408
s(I3220000
I3455000
tp2061
F-0.11607
s(I3035000
I3315000
tp2062
F0.22445
s(I3390000
I3450000
tp2063
F0.90327
s(I3130000
I3425000
tp2064
F-0.50583
s(I3185000
I3195000
tp2065
F0.035004
s(I3330000
I3480000
tp2066
F0.45442
s(I3105000
I3125000
tp2067
F-0.032683
s(I3045000
I3370000
tp2068
F0.49323
s(I3185000
I3380000
tp2069
F0.23529
s(I3230000
I3290000
tp2070
F0.96565
s(I3170000
I3360000
tp2071
F0.96249
s(I3045000
I3165000
tp2072
F0.084695
s(I3205000
I3315000
tp2073
F0.65233
s(I3025000
I3410000
tp2074
F0.0095252
s(I3305000
I3385000
tp2075
F0.84981
s(I3030000
I3375000
tp2076
F0.60754
s(I3120000
I3170000
tp2077
F1.0314
s(I3185000
I3315000
tp2078
F1.335
s(I3125000
I3305000
tp2079
F0.59559
s(I3045000
I3215000
tp2080
F-0.89252
s(I3240000
I3360000
tp2081
F1.3154
s(I3045000
I3420000
tp2082
F-0.14878
s(I3040000
I3110000
tp2083
F-0.31723
s(I3070000
I3120000
tp2084
F0.58188
s(I3110000
I3380000
tp2085
F0.16999
s(I3305000
I3390000
tp2086
F0.68195
s(I3410000
I3480000
tp2087
F0.54908
s(I3175000
I3490000
tp2088
F1.3732
s(I3280000
I3325000
tp2089
F0.21947
s(I3210000
I3245000
tp2090
F0.53156
s(I3255000
I3315000
tp2091
F0.46663
s(I3040000
I3225000
tp2092
F-0.77891
s(I3080000
I3245000
tp2093
F0.61073
s(I3080000
I3090000
tp2094
F0.055088
s(I3125000
I3220000
tp2095
F0.117
s(I3125000
I3480000
tp2096
F-0.08267
s(I3305000
I3315000
tp2097
F0.095256
s(I3370000
I3420000
tp2098
F1.1438
s(I3125000
I3310000
tp2099
F1.1006
s(I3240000
I3275000
tp2100
F0.81933
s(I3070000
I3190000
tp2101
F-0.57169
s(I3165000
I3375000
tp2102
F0.33824
s(I3240000
I3445000
tp2103
F0.70831
s(I3320000
I3470000
tp2104
F-0.062449
s(I3185000
I3330000
tp2105
F0.49471
s(I3100000
I3470000
tp2106
F-0.036225
s(I3285000
I3405000
tp2107
F0.41288
s(I3065000
I3110000
tp2108
F-1.4758
s(I3285000
I3300000
tp2109
F1.1136
s(I3100000
I3460000
tp2110
F-0.31023
s(I3215000
I3305000
tp2111
F1.2121
s(I3080000
I3490000
tp2112
F0.62985
s(I3300000
I3390000
tp2113
F0.13421
s(I3220000
I3360000
tp2114
F0.4146
s(I3370000
I3470000
tp2115
F0.83447
s(I3440000
I3490000
tp2116
F0.4695
s(I3325000
I3415000
tp2117
F0.45124
s(I3070000
I3390000
tp2118
F-0.62755
s(I3205000
I3290000
tp2119
F0.41846
s(I3025000
I3230000
tp2120
F0.70831
s(I3055000
I3070000
tp2121
F2.1171
s(I3195000
I3215000
tp2122
F0.001628
s(I3095000
I3335000
tp2123
F-0.19388
s(I3140000
I3200000
tp2124
F1.527
s(I3100000
I3360000
tp2125
F1.2175
s(I3035000
I3290000
tp2126
F0.74647
s(I3190000
I3415000
tp2127
F0.035633
s(I3445000
I3465000
tp2128
F1.0653
s(I3275000
I3305000
tp2129
F-0.81367
s(I3130000
I3470000
tp2130
F-0.010579
s(I3170000
I3200000
tp2131
F-0.42397
s(I3370000
I3435000
tp2132
F0.82078
s(I3025000
I3095000
tp2133
F0.21588
s(I3365000
I3445000
tp2134
F0.98443
s(I3245000
I3460000
tp2135
F0.48313
s(I3045000
I3120000
tp2136
F0.511
s(I3140000
I3295000
tp2137
F-0.27509
s(I3025000
I3460000
tp2138
F-0.11018
s(I3030000
I3480000
tp2139
F-0.20307
s(I3035000
I3125000
tp2140
F-0.88028
s(I3095000
I3295000
tp2141
F-0.6769
s(I3240000
I3290000
tp2142
F1.5372
s(I3290000
I3375000
tp2143
F-0.10853
s(I3425000
I3490000
tp2144
F0.8816
s(I3130000
I3260000
tp2145
F-0.45389
s(I3110000
I3440000
tp2146
F0.66051
s(I3105000
I3250000
tp2147
F-0.028801
s(I3245000
I3390000
tp2148
F0.94344
s(I3045000
I3210000
tp2149
F1.1406
s(I3235000
I3260000
tp2150
F0.69254
s(I3085000
I3125000
tp2151
F-0.079581
s(I3105000
I3240000
tp2152
F-0.28327
s(I3240000
I3475000
tp2153
F0.98435
s(I3435000
I3470000
tp2154
F0.14787
s(I3335000
I3430000
tp2155
F1.2659
s(I3295000
I3490000
tp2156
F0.7193
s(I3120000
I3420000
tp2157
F0.6459
s(I3030000
I3260000
tp2158
F-0.62463
s(I3050000
I3080000
tp2159
F1.7411
s(I3250000
I3470000
tp2160
F0.22668
s(I3065000
I3170000
tp2161
F0.52488
s(I3120000
I3135000
tp2162
F0.50035
s(I3125000
I3330000
tp2163
F0.21118
s(I3330000
I3490000
tp2164
F0.74578
s(I3095000
I3490000
tp2165
F-0.088278
s(I3075000
I3455000
tp2166
F0.38033
s(I3310000
I3445000
tp2167
F0.18232
s(I3210000
I3370000
tp2168
F0.48115
s(I3005000
I3360000
tp2169
F0.28589
s(I3250000
I3410000
tp2170
F-0.22454
s(I3200000
I3225000
tp2171
F1.2453
s(I3120000
I3315000
tp2172
F0.23529
s(I3240000
I3370000
tp2173
F1.9313
s(I3215000
I3290000
tp2174
F0.91731
s(I3120000
I3490000
tp2175
F0.3387
s(I3305000
I3375000
tp2176
F0.015965
s(I3315000
I3395000
tp2177
F0.24402
s(I3075000
I3400000
tp2178
F-0.95101
s(I3095000
I3455000
tp2179
F-0.067136
s(I3270000
I3315000
tp2180
F0.43138
s(I3370000
I3455000
tp2181
F0.023217
s(I3105000
I3160000
tp2182
F2.5029
s(I3025000
I3060000
tp2183
F0.91526
s(I3330000
I3360000
tp2184
F0.39875
s(I3020000
I3205000
tp2185
F0.2548
s(I3220000
I3320000
tp2186
F1.5264
s(I3095000
I3290000
tp2187
F0.23529
s(I3290000
I3390000
tp2188
F1.2958
s(I3325000
I3390000
tp2189
F-0.39568
s(I3165000
I3395000
tp2190
F-0.037063
s(I3320000
I3335000
tp2191
F1.0021
s(I3030000
I3440000
tp2192
F-0.58343
s(I3390000
I3455000
tp2193
F0.57749
s(I3120000
I3485000
tp2194
F0.87295
s(I3095000
I3220000
tp2195
F0.30579
s(I3090000
I3380000
tp2196
F-0.69267
s(I3330000
I3450000
tp2197
F0.65903
s(I3195000
I3245000
tp2198
F0.63808
s(I3005000
I3465000
tp2199
F0.99252
s(I3035000
I3210000
tp2200
F-0.76408
s(I3070000
I3460000
tp2201
F0.14475
s(I3005000
I3045000
tp2202
F-0.87737
s(I3065000
I3200000
tp2203
F-0.51607
s(I3165000
I3325000
tp2204
F-0.22454
s(I3075000
I3385000
tp2205
F0.11615
s(I3215000
I3425000
tp2206
F1.6187
s(I3165000
I3365000
tp2207
F0.4373
s(I3135000
I3315000
tp2208
F0.029976
s(I3100000
I3115000
tp2209
F-0.16865
s(I3030000
I3355000
tp2210
F0.15994
s(I3005000
I3030000
tp2211
F-0.64979
s(I3030000
I3425000
tp2212
F-0.35508
s(I3220000
I3365000
tp2213
F0.34514
s(I3065000
I3330000
tp2214
F0.91814
s(I3285000
I3490000
tp2215
F1.106
s(I3075000
I3260000
tp2216
F-0.21507
s(I3225000
I3480000
tp2217
F1.0725
s(I3085000
I3220000
tp2218
F0.027119
s(I3050000
I3065000
tp2219
F-0.94916
s(I3180000
I3450000
tp2220
F-0.2734
s(I3240000
I3365000
tp2221
F1.0983
s(I3105000
I3390000
tp2222
F0.1267
s(I3210000
I3235000
tp2223
F0.29774
s(I3140000
I3205000
tp2224
F0.69913
s(I3185000
I3295000
tp2225
F0.57205
s(I3355000
I3420000
tp2226
F1.6115
s(I3115000
I3185000
tp2227
F1.6153
s(I3005000
I3100000
tp2228
F-0.87873
s(I3035000
I3355000
tp2229
F0.4813
s(I3280000
I3375000
tp2230
F0.42337
s(I3095000
I3410000
tp2231
F1.4861
s(I3005000
I3315000
tp2232
F0.46434
s(I3280000
I3300000
tp2233
F1.2711
s(I3315000
I3450000
tp2234
F1.4239
s(I3420000
I3450000
tp2235
F0.44205
s(I3185000
I3425000
tp2236
F0.44595
s(I3195000
I3465000
tp2237
F-0.051703
s(I3090000
I3325000
tp2238
F0.98435
s(I3200000
I3265000
tp2239
F0.090904
s(I3195000
I3300000
tp2240
F2.4612
s(I3185000
I3280000
tp2241
F0.27019
s(I3200000
I3465000
tp2242
F0.8079
s(I3080000
I3260000
tp2243
F-0.91271
s(I3460000
I3480000
tp2244
F0.65353
s(I3095000
I3170000
tp2245
F-0.30161
s(I3075000
I3445000
tp2246
F-0.41115
s(I3170000
I3285000
tp2247
F0.072356
s(I3075000
I3435000
tp2248
F1.6345
s(I3280000
I3420000
tp2249
F0.74379
s(I3075000
I3110000
tp2250
F-0.043976
s(I3205000
I3485000
tp2251
F1.4727
s(I3120000
I3430000
tp2252
F0.11615
s(I3135000
I3300000
tp2253
F0.61073
s(I3195000
I3425000
tp2254
F0.64843
s(I3170000
I3235000
tp2255
F0.57749
s(I3115000
I3170000
tp2256
F0.82131
s(I3395000
I3435000
tp2257
F0.29272
s(I3295000
I3385000
tp2258
F0.70487
s(I3315000
I3325000
tp2259
F0.71787
s(I3320000
I3375000
tp2260
F1.0841
s(I3075000
I3225000
tp2261
F-0.66546
s(I3005000
I3015000
tp2262
F-1.632
s(I3275000
I3440000
tp2263
F-0.18401
s(I3135000
I3320000
tp2264
F-0.02712
s(I3170000
I3185000
tp2265
F-0.94916
s(I3165000
I3485000
tp2266
F0.59218
s(I3265000
I3455000
tp2267
F-0.092881
s(I3200000
I3420000
tp2268
F-0.15518
s(I3260000
I3320000
tp2269
F1.527
s(I3080000
I3325000
tp2270
F1.9609
s(I3070000
I3090000
tp2271
F-0.78752
s(I3320000
I3390000
tp2272
F-0.71707
s(I3275000
I3330000
tp2273
F0.24328
s(I3225000
I3440000
tp2274
F0.58416
s(I3125000
I3415000
tp2275
F0.44534
s(I3065000
I3185000
tp2276
F-1.064
s(I3370000
I3390000
tp2277
F0.96233
s(I3185000
I3355000
tp2278
F0.040766
s(I3040000
I3200000
tp2279
F-0.84202
s(I3090000
I3165000
tp2280
F0.71416
s(I3170000
I3230000
tp2281
F0.52901
s(I3105000
I3475000
tp2282
F0.46367
s(I3395000
I3405000
tp2283
F0.39652
s(I3355000
I3415000
tp2284
F1.4647
s(I3390000
I3480000
tp2285
F1.1487
s(I3100000
I3450000
tp2286
F1.4986
s(I3005000
I3055000
tp2287
F0.18853
s(I3210000
I3320000
tp2288
F1.134
s(I3375000
I3430000
tp2289
F0.61112
s(I3130000
I3230000
tp2290
F-0.24186
s(I3430000
I3470000
tp2291
F0.39909
s(I3260000
I3415000
tp2292
F-0.10072
s(I3355000
I3465000
tp2293
F0.57205
s(I3425000
I3440000
tp2294
F0.66761
s(I3030000
I3485000
tp2295
F0.068352
s(I3130000
I3160000
tp2296
F1.1782
s(I3215000
I3235000
tp2297
F0.8594
s(I3190000
I3245000
tp2298
F-0.019464
s(I3230000
I3445000
tp2299
F-0.02205
s(I3230000
I3300000
tp2300
F1.0156
s(I3305000
I3335000
tp2301
F-1.8096
s(I3305000
I3330000
tp2302
F0.7715
s(I3175000
I3365000
tp2303
F1.4422
s(I3005000
I3365000
tp2304
F-0.067136
s(I3070000
I3245000
tp2305
F-0.011831
s(I3355000
I3380000
tp2306
F0.73202
s(I3135000
I3250000
tp2307
F0.4589
s(I3250000
I3325000
tp2308
F0.44328
s(I3210000
I3310000
tp2309
F0.29631
s(I3260000
I3270000
tp2310
F0.85846
s(I3265000
I3385000
tp2311
F0.90517
s(I3125000
I3355000
tp2312
F0.35465
s(I3025000
I3435000
tp2313
F-0.44862
s(I3410000
I3450000
tp2314
F1.0373
s(I3405000
I3485000
tp2315
F0.17671
s(I3170000
I3450000
tp2316
F0.33793
s(I3065000
I3190000
tp2317
F-0.16973
s(I3300000
I3330000
tp2318
F0.052342
s(I3385000
I3405000
tp2319
F-0.61596
s(I3120000
I3440000
tp2320
F1.1466
s(I3085000
I3250000
tp2321
F-0.36062
s(I3245000
I3435000
tp2322
F0.38683
s(I3065000
I3370000
tp2323
F1.1235
s(I3225000
I3435000
tp2324
F0.92922
s(I3070000
I3185000
tp2325
F0.26563
s(I3195000
I3290000
tp2326
F0.34678
s(I3415000
I3490000
tp2327
F0.98503
s(I3100000
I3185000
tp2328
F-0.1744
s(I3370000
I3480000
tp2329
F1.134
s(I3135000
I3170000
tp2330
F1.9704
s(I3090000
I3450000
tp2331
F-0.43177
s(I3400000
I3455000
tp2332
F0.50602
s(I3040000
I3395000
tp2333
F-0.45123
s(I3045000
I3315000
tp2334
F0.94593
s(I3355000
I3395000
tp2335
F0.66502
s(I3330000
I3435000
tp2336
F0.45041
s(I3210000
I3375000
tp2337
F0.25751
s(I3180000
I3380000
tp2338
F0.2516
s(I3225000
I3485000
tp2339
F0.12345
s(I3260000
I3420000
tp2340
F0.1283
s(I3215000
I3395000
tp2341
F0.21851
s(I3120000
I3335000
tp2342
F0.38209
s(I3260000
I3450000
tp2343
F1.3463
s(I3305000
I3405000
tp2344
F-0.16498
s(I3285000
I3410000
tp2345
F0.38504
s(I3125000
I3290000
tp2346
F-0.44893
s(I3270000
I3285000
tp2347
F0.026473
s(I3200000
I3440000
tp2348
F0.76587
s(I3175000
I3220000
tp2349
F-0.99904
s(I3360000
I3410000
tp2350
F0.75046
s(I3225000
I3415000
tp2351
F1.0584
s(I3070000
I3080000
tp2352
F0.27601
s(I3075000
I3210000
tp2353
F-0.51607
s(I3040000
I3455000
tp2354
F0.77643
s(I3360000
I3415000
tp2355
F0.92641
s(I3070000
I3380000
tp2356
F-0.23205
s(I3110000
I3320000
tp2357
F-0.44974
s(I3005000
I3335000
tp2358
F-0.042727
s(I3190000
I3275000
tp2359
F-0.70139
s(I3025000
I3290000
tp2360
F-0.84573
s(I3105000
I3370000
tp2361
F-0.73549
s(I3110000
I3425000
tp2362
F0.24478
s(I3360000
I3380000
tp2363
F0.99664
s(I3225000
I3445000
tp2364
F0.83765
s(I3120000
I3210000
tp2365
F0.32443
s(I3075000
I3310000
tp2366
F0.48416
s(I3385000
I3420000
tp2367
F0.43564
s(I3365000
I3420000
tp2368
F0.82131
s(I3235000
I3395000
tp2369
F1.0104
s(I3180000
I3330000
tp2370
F0.45442
s(I3105000
I3215000
tp2371
F0.81288
s(I3210000
I3485000
tp2372
F1.4348
s(I3125000
I3370000
tp2373
F-0.91379
s(I3355000
I3490000
tp2374
F0.7255
s(I3030000
I3255000
tp2375
F-0.066198
s(I3200000
I3275000
tp2376
F1.3913
s(I3185000
I3420000
tp2377
F0.88431
s(I3005000
I3375000
tp2378
F0.088749
s(I3250000
I3425000
tp2379
F-0.011831
s(I3110000
I3170000
tp2380
F1.2152
s(I3365000
I3395000
tp2381
F1.1349
s(I3405000
I3490000
tp2382
F0.48433
s(I3120000
I3185000
tp2383
F0.45584
s(I3120000
I3370000
tp2384
F-0.040572
s(I3095000
I3415000
tp2385
F0.03776
s(I3090000
I3250000
tp2386
F0.74578
s(I3325000
I3410000
tp2387
F0.28671
s(I3135000
I3430000
tp2388
F-0.27964
s(I3335000
I3440000
tp2389
F0.59936
s(I3375000
I3470000
tp2390
F0.65316
s(I3120000
I3175000
tp2391
F0.085634
s(I3115000
I3395000
tp2392
F-0.11599
s(I3005000
I3455000
tp2393
F1.3172
s(I3125000
I3450000
tp2394
F-0.17334
s(I3025000
I3220000
tp2395
F-0.34552
s(I3200000
I3335000
tp2396
F0.8031
s(I3265000
I3320000
tp2397
F0.87386
s(I3285000
I3475000
tp2398
F0.38683
s(I3180000
I3320000
tp2399
F0.3323
s(I3185000
I3300000
tp2400
F0.65218
s(I3270000
I3320000
tp2401
F0.13234
s(I3310000
I3375000
tp2402
F0.94243
s(I3175000
I3185000
tp2403
F-0.42693
s(I3085000
I3105000
tp2404
F0.65353
s(I3120000
I3230000
tp2405
F-1.4349
s(I3215000
I3380000
tp2406
F1.3172
s(I3245000
I3395000
tp2407
F-0.23474
s(I3095000
I3245000
tp2408
F0.28213
s(I3140000
I3300000
tp2409
F-0.40096
s(I3135000
I3230000
tp2410
F-0.34257
s(I3215000
I3370000
tp2411
F0.85833
s(I3075000
I3255000
tp2412
F0.12424
s(I3070000
I3285000
tp2413
F-0.62826
s(I3225000
I3285000
tp2414
F0.029991
s(I3095000
I3395000
tp2415
F0.19066
s(I3195000
I3280000
tp2416
F0.22084
s(I3310000
I3380000
tp2417
F0.54908
s(I3275000
I3415000
tp2418
F2.3074
s(I3280000
I3400000
tp2419
F0.82312
s(I3170000
I3415000
tp2420
F0.15092
s(I3230000
I3365000
tp2421
F1.1911
s(I3245000
I3400000
tp2422
F0.50958
s(I3255000
I3360000
tp2423
F0.37593
s(I3140000
I3240000
tp2424
F0.21942
s(I3085000
I3315000
tp2425
F0.74636
s(I3075000
I3105000
tp2426
F-1.4632
s(I3005000
I3385000
tp2427
F-0.51501
s(I3175000
I3265000
tp2428
F0.83168
s(I3205000
I3320000
tp2429
F0.072356
s(I3435000
I3445000
tp2430
F0.01492
s(I3370000
I3415000
tp2431
F1.279
s(I3095000
I3115000
tp2432
F1.3741
s(I3325000
I3375000
tp2433
F1.8743
s(I3225000
I3310000
tp2434
F0.28671
s(I3270000
I3370000
tp2435
F0.21942
s(I3025000
I3175000
tp2436
F-0.75161
s(I3335000
I3385000
tp2437
F0.91904
s(I3090000
I3465000
tp2438
F3.2924
s(I3025000
I3225000
tp2439
F-0.1198
s(I3135000
I3245000
tp2440
F0.33122
s(I3140000
I3375000
tp2441
F-0.016032
s(I3095000
I3175000
tp2442
F0.31133
s(I3435000
I3485000
tp2443
F0.58188
s(I3250000
I3330000
tp2444
F0.1094
s(I3110000
I3215000
tp2445
F0.45041
s(I3035000
I3325000
tp2446
F-0.27885
s(I3025000
I3050000
tp2447
F1.0084
s(I3215000
I3430000
tp2448
F0.18002
s(I3255000
I3280000
tp2449
F0.5741
s(I3170000
I3460000
tp2450
F-0.071938
s(I3165000
I3260000
tp2451
F-0.11279
s(I3205000
I3390000
tp2452
F0.53672
s(I3200000
I3285000
tp2453
F0.15496
s(I3165000
I3335000
tp2454
F0.88073
s(I3075000
I3140000
tp2455
F-0.57815
s(I3110000
I3210000
tp2456
F-0.011217
s(I3035000
I3285000
tp2457
F0.6996
s(I3090000
I3420000
tp2458
F-0.51155
s(I3290000
I3445000
tp2459
F0.77114
s(I3140000
I3315000
tp2460
F1.2106
s(I3075000
I3360000
tp2461
F-0.20284
s(I3030000
I3400000
tp2462
F0.3387
s(I3235000
I3320000
tp2463
F0.023217
s(I3200000
I3490000
tp2464
F-0.17539
s(I3040000
I3375000
tp2465
F3.9601
s(I3420000
I3485000
tp2466
F0.75996
s(I3075000
I3220000
tp2467
F-0.77668
s(I3125000
I3275000
tp2468
F-0.14859
s(I3130000
I3325000
tp2469
F-0.055113
s(I3335000
I3390000
tp2470
F0.71622
s(I3005000
I3160000
tp2471
F-0.8854
s(I3115000
I3195000
tp2472
F0.98443
s(I3260000
I3440000
tp2473
F1.5383
s(I3235000
I3360000
tp2474
F-0.24899
s(I3005000
I3200000
tp2475
F0.23529
s(I3320000
I3365000
tp2476
F0.27245
s(I3115000
I3230000
tp2477
F-0.31419
s(I3130000
I3370000
tp2478
F-0.62043
s(I3100000
I3430000
tp2479
F0.30889
s(I3090000
I3390000
tp2480
F-0.036959
s(I3230000
I3380000
tp2481
F1.1436
s(I3055000
I3090000
tp2482
F5.9992
s(I3165000
I3425000
tp2483
F0.12345
s(I3260000
I3435000
tp2484
F0.082201
s(I3090000
I3485000
tp2485
F0.17852
s(I3125000
I3245000
tp2486
F0.33084
s(I3040000
I3125000
tp2487
F-1.0308
s(I3250000
I3320000
tp2488
F0.54908
s(I3025000
I3055000
tp2489
F-1.0735
s(I3125000
I3410000
tp2490
F0.1267
s(I3335000
I3470000
tp2491
F0.25991
s(I3170000
I3300000
tp2492
F-1.0502
s(I3310000
I3365000
tp2493
F1.0841
s(I3320000
I3425000
tp2494
F1.2696
s(I3245000
I3360000
tp2495
F0.072356
s(I3260000
I3400000
tp2496
F1.8137
s(I3115000
I3380000
tp2497
F0.14645
s(I3110000
I3220000
tp2498
F0.57205
s(I3210000
I3385000
tp2499
F1.1165
s(I3210000
I3250000
tp2500
F0.50547
s(I3230000
I3280000
tp2501
F1.2
s(I3090000
I3120000
tp2502
F1.438
s(I3265000
I3365000
tp2503
F0.98823
s(I3005000
I3395000
tp2504
F-0.10296
s(I3190000
I3335000
tp2505
F2.0653
s(I3180000
I3195000
tp2506
F0.72336
s(I3180000
I3465000
tp2507
F0.23655
s(I3030000
I3295000
tp2508
F-0.515
s(I3035000
I3370000
tp2509
F-0.14258
s(I3250000
I3460000
tp2510
F1.0277
s(I3280000
I3305000
tp2511
F0.7715
s(I3035000
I3045000
tp2512
F-0.40685
s(I3300000
I3460000
tp2513
F1.8925
s(I3230000
I3310000
tp2514
F0.71519
s(I3435000
I3465000
tp2515
F0.65855
s(I3385000
I3475000
tp2516
F1.1487
s(I3195000
I3230000
tp2517
F0.19583
s(I3040000
I3485000
tp2518
F-0.76153
s(I3365000
I3480000
tp2519
F1.1031
s(I3255000
I3455000
tp2520
F-0.1198
s(I3215000
I3230000
tp2521
F0.082224
s(I3240000
I3330000
tp2522
F-0.24622
s(I3080000
I3465000
tp2523
F0.13511
s(I3025000
I3165000
tp2524
F1.073
s(I3065000
I3105000
tp2525
F1.1969
s(I3300000
I3310000
tp2526
F0.23585
s(I3205000
I3420000
tp2527
F0.28106
s(I3450000
I3460000
tp2528
F0.59736
s(I3240000
I3355000
tp2529
F-0.31419
s(I3335000
I3415000
tp2530
F-0.092533
s(I3085000
I3385000
tp2531
F1.8978
s(I3065000
I3130000
tp2532
F0.63831
s(I3210000
I3330000
tp2533
F0.0026471
s(I3195000
I3320000
tp2534
F0.46429
s(I3115000
I3140000
tp2535
F1.2058
s(I3205000
I3335000
tp2536
F0.31279
s(I3220000
I3240000
tp2537
F0.035939
s(I3185000
I3370000
tp2538
F0.2548
s(I3250000
I3430000
tp2539
F0.68986
s(I3040000
I3135000
tp2540
F-0.72554
s(I3275000
I3295000
tp2541
F0.035939
s(I3325000
I3355000
tp2542
F1.5246
s(I3310000
I3360000
tp2543
F0.97524
s(I3180000
I3435000
tp2544
F0.52911
s(I3070000
I3205000
tp2545
F-0.67126
s(I3200000
I3385000
tp2546
F-0.49699
s(I3435000
I3460000
tp2547
F0.81098
s(I3205000
I3415000
tp2548
F0.042744
s(I3330000
I3385000
tp2549
F0.82131
s(I3305000
I3480000
tp2550
F0.36429
s(I3265000
I3415000
tp2551
F0.54056
s(I3280000
I3405000
tp2552
F0.78131
s(I3255000
I3450000
tp2553
F1.5905
s(I3125000
I3240000
tp2554
F-0.70074
s(I3415000
I3485000
tp2555
F0.81564
s(I3120000
I3460000
tp2556
F-0.13006
s(I3275000
I3450000
tp2557
F0.92848
s(I3315000
I3445000
tp2558
F1.4202
s(I3025000
I3360000
tp2559
F0.21942
s(I3220000
I3480000
tp2560
F0.99872
s(I3240000
I3300000
tp2561
F-0.78091
s(I3190000
I3425000
tp2562
F0.48416
s(I3175000
I3360000
tp2563
F0.91262
s(I3100000
I3455000
tp2564
F0.040183
s(I3215000
I3320000
tp2565
F-0.070914
s(I3080000
I3195000
tp2566
F0.072356
s(I3195000
I3435000
tp2567
F0.97914
s(I3260000
I3425000
tp2568
F0.0809
s(I3325000
I3365000
tp2569
F0.71821
s(I3370000
I3490000
tp2570
F1.1513
s(I3030000
I3130000
tp2571
F0.45007
s(I3215000
I3330000
tp2572
F0.39448
s(I3100000
I3380000
tp2573
F1.4727
s(I3110000
I3410000
tp2574
F0.53209
s(I3165000
I3430000
tp2575
F0.036206
s(I3030000
I3465000
tp2576
F-0.11018
s(I3305000
I3430000
tp2577
F1.6531
s(I3110000
I3160000
tp2578
F-0.3734
s(I3325000
I3380000
tp2579
F0.50602
s(I3355000
I3475000
tp2580
F0.57698
s(I3040000
I3250000
tp2581
F1.2247
s(I3220000
I3300000
tp2582
F1.1191
s(I3195000
I3310000
tp2583
F0.13678
s(I3085000
I3210000
tp2584
F-0.011227
s(I3095000
I3200000
tp2585
F0.59936
s(I3255000
I3485000
tp2586
F-0.5267
s(I3090000
I3360000
tp2587
F1.2785
s(I3185000
I3375000
tp2588
F1.0584
s(I3020000
I3200000
tp2589
F-0.3471
s(I3105000
I3265000
tp2590
F0.83399
s(I3090000
I3330000
tp2591
F-0.08724
s(I3105000
I3190000
tp2592
F-1.6236
s(I3210000
I3415000
tp2593
F1.3049
s(I3235000
I3370000
tp2594
F0.49271
s(I3455000
I3465000
tp2595
F0.47686
s(I3085000
I3335000
tp2596
F-0.25205
s(I3290000
I3370000
tp2597
F0.17671
s(I3255000
I3305000
tp2598
F0.80666
s(I3225000
I3370000
tp2599
F0.5695
s(I3035000
I3065000
tp2600
F0.44205
s(I3180000
I3315000
tp2601
F1.7343
s(I3095000
I3400000
tp2602
F0.21095
s(I3200000
I3370000
tp2603
F1.6274
s(I3100000
I3240000
tp2604
F-0.16149
s(I3085000
I3190000
tp2605
F-1.4115
s(I3365000
I3385000
tp2606
F1.2025
s(I3315000
I3490000
tp2607
F0.74042
s(I3005000
I3220000
tp2608
F0.58416
s(I3425000
I3455000
tp2609
F1.8277
s(I3285000
I3295000
tp2610
F0.055088
s(I3235000
I3385000
tp2611
F0.799
s(I3125000
I3300000
tp2612
F0.74042
s(I3120000
I3415000
tp2613
F-0.16655
s(I3125000
I3400000
tp2614
F-0.70783
s(I3180000
I3260000
tp2615
F1.3883
s(I3120000
I3300000
tp2616
F0.50132
s(I3030000
I3280000
tp2617
F-0.88648
s(I3005000
I3170000
tp2618
F0.1692
s(I3180000
I3460000
tp2619
F0.90534
s(I3125000
I3200000
tp2620
F-0.50477
s(I3355000
I3390000
tp2621
F0.43564
s(I3140000
I3260000
tp2622
F0.82312
s(I3380000
I3410000
tp2623
F0.87506
s(I3235000
I3315000
tp2624
F0.7825
s(I3035000
I3130000
tp2625
F0.42337
s(I3215000
I3385000
tp2626
F0.69407
s(I3400000
I3440000
tp2627
F1.3033
s(I3080000
I3265000
tp2628
F1.1945
s(I3120000
I3195000
tp2629
F-0.50477
s(I3140000
I3470000
tp2630
F1.0121
s(I3095000
I3465000
tp2631
F0.088749
s(I3135000
I3235000
tp2632
F-1.5488
s(I3025000
I3255000
tp2633
F-0.5267
s(I3275000
I3420000
tp2634
F-0.6271
s(I3115000
I3385000
tp2635
F0.61339
s(I3325000
I3455000
tp2636
F0.48316
s(I3235000
I3480000
tp2637
F3.4515
s(I3030000
I3245000
tp2638
F0.78623
s(I3005000
I3325000
tp2639
F-0.073125
s(I3170000
I3330000
tp2640
F0.040091
s(I3205000
I3260000
tp2641
F0.29583
s(I3120000
I3390000
tp2642
F-0.051703
s(I3325000
I3470000
tp2643
F0.49471
s(I3030000
I3040000
tp2644
F-0.92904
s(I3060000
I3205000
tp2645
F-0.028801
s(I3220000
I3305000
tp2646
F0.8137
s(I3195000
I3285000
tp2647
F-0.056005
s(I3260000
I3310000
tp2648
F0.80666
s(I3255000
I3330000
tp2649
F0.17241
s(I3185000
I3255000
tp2650
F0.21588
s(I3030000
I3475000
tp2651
F1.6439
s(I3320000
I3450000
tp2652
F0.31279
s(I3065000
I3300000
tp2653
F-1.0164
s(I3030000
I3080000
tp2654
F0.80666
s(I3005000
I3370000
tp2655
F0.066236
s(I3230000
I3250000
tp2656
F0.48198
s(I3250000
I3465000
tp2657
F0.88727
s(I3180000
I3485000
tp2658
F-0.017191
s(I3105000
I3245000
tp2659
F-0.49068
s(I3180000
I3255000
tp2660
F0.10469
s(I3040000
I3325000
tp2661
F-0.86192
s(I3220000
I3245000
tp2662
F1.5611
s(I3240000
I3420000
tp2663
F-0.72417
s(I3080000
I3110000
tp2664
F0.35545
s(I3005000
I3025000
tp2665
F-0.61596
s(I3425000
I3435000
tp2666
F1.3405
s(I3200000
I3455000
tp2667
F1.5072
s(I3370000
I3425000
tp2668
F0.87386
s(I3005000
I3175000
tp2669
F0.60074
s(I3075000
I3175000
tp2670
F0.45007
s(I3100000
I3260000
tp2671
F1.4515
s(I3090000
I3375000
tp2672
F0.34639
s(I3195000
I3240000
tp2673
F0.80223
s(I3130000
I3195000
tp2674
F0.21255
s(I3120000
I3405000
tp2675
F-0.092995
s(I3125000
I3445000
tp2676
F-0.73844
s(I3220000
I3335000
tp2677
F0.78103
s(I3260000
I3460000
tp2678
F1.273
s(I3030000
I3190000
tp2679
F0.9222
s(I3240000
I3310000
tp2680
F1.0822
s(I3120000
I3265000
tp2681
F0.19556
s(I3255000
I3430000
tp2682
F0.64639
s(I3330000
I3425000
tp2683
F-0.11279
s(I3205000
I3295000
tp2684
F0.64146
s(I3005000
I3230000
tp2685
F0.2393
s(I3300000
I3370000
tp2686
F0.61572
s(I3220000
I3470000
tp2687
F0.80534
s(I3030000
I3365000
tp2688
F0.82275
s(I3005000
I3050000
tp2689
F0.060534
s(I3080000
I3140000
tp2690
F0.90327
s(I3455000
I3470000
tp2691
F1.1136
s(I3115000
I3190000
tp2692
F0.91731
s(I3325000
I3440000
tp2693
F0.90988
s(I3070000
I3365000
tp2694
F0.17273
s(I3090000
I3365000
tp2695
F-1.3845
s(I3355000
I3450000
tp2696
F0.95954
s(I3165000
I3215000
tp2697
F0.076144
s(I3135000
I3485000
tp2698
F0.6398
s(I3120000
I3450000
tp2699
F-0.27714
s(I3250000
I3290000
tp2700
F0.55865
s(I3280000
I3415000
tp2701
F0.41511
s(I3235000
I3455000
tp2702
F-0.99527
s(I3250000
I3455000
tp2703
F1.6031
s(I3190000
I3390000
tp2704
F0.065901
s(I3190000
I3315000
tp2705
F0.46429
s(I3245000
I3440000
tp2706
F0.8161
s(I3085000
I3370000
tp2707
F0.1267
s(I3080000
I3100000
tp2708
F0.27611
s(I3025000
I3215000
tp2709
F0.67466
s(I3125000
I3295000
tp2710
F0.13409
s(I3220000
I3275000
tp2711
F1.6621
s(I3100000
I3475000
tp2712
F2.0179
s(I3110000
I3245000
tp2713
F-0.12808
s(I3210000
I3430000
tp2714
F-0.23155
s(I3025000
I3420000
tp2715
F-0.088278
s(I3180000
I3295000
tp2716
F0.33005
s(I3185000
I3465000
tp2717
F0.11097
s(I3165000
I3295000
tp2718
F0.14241
s(I3030000
I3310000
tp2719
F0.79186
s(I3100000
I3355000
tp2720
F-0.34033
s(I3130000
I3285000
tp2721
F1.2943
s(I3115000
I3295000
tp2722
F-0.064292
s(I3225000
I3425000
tp2723
F1.7372
s(I3245000
I3310000
tp2724
F-0.27403
s(I3285000
I3315000
tp2725
F0.91836
s(I3380000
I3490000
tp2726
F0.49177
s(I3005000
I3255000
tp2727
F0.91108
s(I3320000
I3360000
tp2728
F0.87777
s(I3210000
I3230000
tp2729
F1.3741
s(I3290000
I3325000
tp2730
F0.72341
s(I3290000
I3415000
tp2731
F0.46429
s(I3030000
I3410000
tp2732
F-0.13129
s(I3210000
I3390000
tp2733
F0.68986
s(I3120000
I3330000
tp2734
F-0.44974
s(I3170000
I3320000
tp2735
F0.28213
s(I3140000
I3370000
tp2736
F0.15879
s(I3335000
I3410000
tp2737
F0.98503
s(I3135000
I3310000
tp2738
F-0.38796
s(I3030000
I3095000
tp2739
F0.63831
s(I3235000
I3375000
tp2740
F0.82609
s(I3245000
I3470000
tp2741
F0.64662
s(I3005000
I3225000
tp2742
F-0.30793
s(I3105000
I3420000
tp2743
F1.5989
s(I3380000
I3440000
tp2744
F0.8409
s(I3455000
I3490000
tp2745
F0.24379
s(I3295000
I3470000
tp2746
F0.36429
s(I3065000
I3310000
tp2747
F-0.1685
s(I3140000
I3410000
tp2748
F0.50254
s(I3380000
I3395000
tp2749
F1.0857
s(I3140000
I3235000
tp2750
F-1.5681
s(I3030000
I3270000
tp2751
F0.65923
s(I3380000
I3390000
tp2752
F0.65761
s(I3070000
I3195000
tp2753
F0.46429
s(I3090000
I3205000
tp2754
F0.58775
s(I3070000
I3315000
tp2755
F1.4286
s(I3320000
I3385000
tp2756
F0.45584
s(I3200000
I3215000
tp2757
F1.3645
s(I3025000
I3120000
tp2758
F0.49997
s(I3410000
I3475000
tp2759
F1.1249
s(I3435000
I3480000
tp2760
F0.74925
s(I3005000
I3280000
tp2761
F-0.70783
s(I3135000
I3260000
tp2762
F0.30579
s(I3230000
I3425000
tp2763
F-0.15192
s(I3115000
I3310000
tp2764
F0.041688
s(I3090000
I3225000
tp2765
F0.57031
s(I3025000
I3045000
tp2766
F0.72215
s(I3025000
I3475000
tp2767
F1.0638
s(I3140000
I3380000
tp2768
F0.44595
s(I3220000
I3270000
tp2769
F0.58188
s(I3325000
I3370000
tp2770
F1.1201
s(I3185000
I3310000
tp2771
F-0.40749
s(I3175000
I3470000
tp2772
F1.0775
s(I3245000
I3425000
tp2773
F1.0669
s(I3030000
I3200000
tp2774
F-0.23922
s(I3065000
I3175000
tp2775
F2.1776
s(I3105000
I3285000
tp2776
F1.0669
s(I3075000
I3130000
tp2777
F1.2942
s(I3225000
I3245000
tp2778
F-0.066993
s(I3235000
I3325000
tp2779
F1.0219
s(I3395000
I3415000
tp2780
F0.61922
s(I3190000
I3270000
tp2781
F-0.22715
s(I3255000
I3395000
tp2782
F0.25
s(I3230000
I3275000
tp2783
F1.385
s(I3190000
I3265000
tp2784
F0.30785
s(I3075000
I3100000
tp2785
F-1.3999
s(I3110000
I3360000
tp2786
F-0.67501
s(I3335000
I3375000
tp2787
F0.98414
s(I3080000
I3415000
tp2788
F-0.14258
s(I3295000
I3485000
tp2789
F1.3463
s(I3225000
I3320000
tp2790
F0.19359
s(I3025000
I3305000
tp2791
F1.1323
s(I3175000
I3485000
tp2792
F0.46434
s(I3065000
I3470000
tp2793
F1.37
s(I3040000
I3405000
tp2794
F0.29673
s(I3005000
I3195000
tp2795
F-0.18882
s(I3205000
I3370000
tp2796
F0.78734
s(I3295000
I3410000
tp2797
F1.2964
s(I3315000
I3460000
tp2798
F-0.10359
s(I3105000
I3395000
tp2799
F-0.69267
s(I3250000
I3390000
tp2800
F0.4969
s(I3085000
I3355000
tp2801
F0.059145
s(I3190000
I3365000
tp2802
F-0.38796
s(I3025000
I3380000
tp2803
F0.28589
s(I3195000
I3410000
tp2804
F-0.02205
s(I3025000
I3365000
tp2805
F0.34787
s(I3410000
I3485000
tp2806
F1.1205
s(I3140000
I3265000
tp2807
F-0.16973
s(I3085000
I3265000
tp2808
F-0.064292
s(I3130000
I3220000
tp2809
F0.83168
s(I3075000
I3165000
tp2810
F0.26102
s(I3405000
I3445000
tp2811
F1.2501
s(I3245000
I3430000
tp2812
F0.6307
s(I3170000
I3325000
tp2813
F0.073651
s(I3275000
I3410000
tp2814
F0.57031
s(I3055000
I3085000
tp2815
F6.2876
s(I3035000
I3215000
tp2816
F-0.15856
s(I3205000
I3425000
tp2817
F0.1503
s(I3295000
I3355000
tp2818
F0.21712
s(I3320000
I3415000
tp2819
F0.19359
s(I3185000
I3390000
tp2820
F-0.18651
s(I3220000
I3310000
tp2821
F1.0219
s(I3320000
I3490000
tp2822
F0.7874
s(I3035000
I3110000
tp2823
F1.7976
s(I3465000
I3475000
tp2824
F0.21576
s(I3245000
I3380000
tp2825
F0.18232
s(I3365000
I3380000
tp2826
F0.4446
s(I3270000
I3485000
tp2827
F0.18002
s(I3190000
I3240000
tp2828
F1.2562
s(I3100000
I3175000
tp2829
F0.30785
s(I3075000
I3085000
tp2830
F-0.92904
s(I3025000
I3490000
tp2831
F0.45705
s(I3140000
I3430000
tp2832
F-1.003
s(I3115000
I3290000
tp2833
F0.27026
s(I3200000
I3405000
tp2834
F0.90715
s(I3115000
I3325000
tp2835
F0.43673
s(I3040000
I3285000
tp2836
F0.25739
s(I3255000
I3310000
tp2837
F0.19073
s(I3090000
I3230000
tp2838
F-0.65527
s(I3250000
I3355000
tp2839
F0.7483
s(I3025000
I3355000
tp2840
F-0.15993
s(I3370000
I3475000
tp2841
F1.8654
s(I3030000
I3210000
tp2842
F0.40705
s(I3110000
I3480000
tp2843
F0.58864
s(I3180000
I3360000
tp2844
F0.78412
s(I3355000
I3485000
tp2845
F0.90909
s(I3045000
I3220000
tp2846
F-0.48199
s(I3035000
I3075000
tp2847
F-0.13277
s(I3335000
I3425000
tp2848
F0.26102
s(I3240000
I3390000
tp2849
F0.97129
s(I3190000
I3450000
tp2850
F1.327
s(I3300000
I3405000
tp2851
F0.45041
s(I3280000
I3290000
tp2852
F1.1196
s(I3330000
I3390000
tp2853
F0.8409
s(I3200000
I3230000
tp2854
F-1.0302
s(I3415000
I3475000
tp2855
F0.40426
s(I3105000
I3210000
tp2856
F-1.4859
s(I3365000
I3375000
tp2857
F0.95888
s(I3035000
I3250000
tp2858
F-0.42619
s(I3040000
I3060000
tp2859
F-0.58165
s(I3305000
I3420000
tp2860
F-0.12092
s(I3025000
I3135000
tp2861
F2.3381
s(I3140000
I3290000
tp2862
F-0.32088
s(I3045000
I3470000
tp2863
F0.26529
s(I3005000
I3245000
tp2864
F0.019398
s(I3135000
I3450000
tp2865
F0.80901
s(I3335000
I3365000
tp2866
F-0.07756
s(I3135000
I3455000
tp2867
F0.81395
s(I3175000
I3240000
tp2868
F1.5507
s(I3135000
I3160000
tp2869
F1.3637
s(I3430000
I3465000
tp2870
F0.86729
s(I3080000
I3215000
tp2871
F0.6479
s(I3195000
I3235000
tp2872
F-0.13277
s(I3205000
I3380000
tp2873
F0.64639
s(I3255000
I3365000
tp2874
F0.57205
s(I3070000
I3135000
tp2875
F0.82078
s(I3235000
I3475000
tp2876
F1.2991
s(I3180000
I3395000
tp2877
F0.58416
s(I3005000
I3300000
tp2878
F-0.27964
s(I3045000
I3225000
tp2879
F-0.6299
s(I3110000
I3295000
tp2880
F0.53672
s(I3125000
I3470000
tp2881
F0.48745
s(I3410000
I3440000
tp2882
F0.18224
s(I3090000
I3235000
tp2883
F0.71908
s(I3265000
I3330000
tp2884
F0.69913
s(I3005000
I3450000
tp2885
F0.30757
s(I3120000
I3385000
tp2886
F1.1386
s(I3080000
I3460000
tp2887
F0.63615
s(I3250000
I3275000
tp2888
F0.33722
s(I3135000
I3200000
tp2889
F-0.4565
s(I3410000
I3430000
tp2890
F1.0996
s(I3030000
I3390000
tp2891
F0.17596
s(I3025000
I3320000
tp2892
F0.96438
s(I3310000
I3395000
tp2893
F0.22084
s(I3190000
I3470000
tp2894
F1.0188
s(I3030000
I3195000
tp2895
F-0.36062
s(I3225000
I3420000
tp2896
F0.6225
s(I3040000
I3085000
tp2897
F-2.2175
s(I3080000
I3390000
tp2898
F0.34828
s(I3230000
I3475000
tp2899
F0.89621
s(I3005000
I3240000
tp2900
F0.68424
s(I3205000
I3235000
tp2901
F-1.723
s(I3070000
I3490000
tp2902
F0.11487
s(I3090000
I3490000
tp2903
F-0.94707
s(I3170000
I3440000
tp2904
F0.16999
s(I3285000
I3360000
tp2905
F0.98503
s(I3205000
I3375000
tp2906
F0.7874
s(I3450000
I3490000
tp2907
F0.079977
s(I3105000
I3455000
tp2908
F1.2532
s(I3105000
I3380000
tp2909
F0.41987
s(I3135000
I3360000
tp2910
F0.74846
s(I3110000
I3225000
tp2911
F0.52333
s(I3175000
I3295000
tp2912
F1.5616
s(I3210000
I3255000
tp2913
F0.27245
s(I3190000
I3410000
tp2914
F-0.078811
s(I3090000
I3125000
tp2915
F1.2989
s(I3220000
I3420000
tp2916
F0.53015
s(I3240000
I3410000
tp2917
F-0.70587
s(I3085000
I3175000
tp2918
F-0.49985
s(I3220000
I3415000
tp2919
F0.4289
s(I3085000
I3100000
tp2920
F-1.7018
s(I3030000
I3105000
tp2921
F0.57872
s(I3270000
I3435000
tp2922
F-0.53723
s(I3175000
I3355000
tp2923
F-0.44137
s(I3325000
I3425000
tp2924
F0.14254
s(I3255000
I3390000
tp2925
F0.33751
s(I3035000
I3480000
tp2926
F1.3767
s(I3005000
I3060000
tp2927
F-0.072012
s(I3095000
I3195000
tp2928
F-0.16498
s(I3390000
I3405000
tp2929
F0.86273
s(I3295000
I3390000
tp2930
F0.42337
s(I3195000
I3395000
tp2931
F0.2516
s(I3210000
I3355000
tp2932
F0.41993
s(I3380000
I3455000
tp2933
F0.24013
s(I3075000
I3410000
tp2934
F1.3054
s(I3320000
I3420000
tp2935
F0.60383
s(I3240000
I3440000
tp2936
F-0.21265
s(I3370000
I3395000
tp2937
F0.5741
s(I3165000
I3290000
tp2938
F0.46429
s(I3300000
I3355000
tp2939
F1.1892
s(I3135000
I3240000
tp2940
F0.97173
s(I3035000
I3100000
tp2941
F0.090904
s(I3120000
I3225000
tp2942
F-0.070914
s(I3025000
I3170000
tp2943
F1.0182
s(I3265000
I3395000
tp2944
F0.057228
s(I3135000
I3290000
tp2945
F0.33521
s(I3065000
I3320000
tp2946
F-0.99241
s(I3040000
I3335000
tp2947
F1.756
s(I3230000
I3315000
tp2948
F-0.56964
s(I3175000
I3475000
tp2949
F0.87352
s(I3100000
I3375000
tp2950
F0.081561
s(I3300000
I3360000
tp2951
F0.029991
s(I3095000
I3485000
tp2952
F0.2686
s(I3440000
I3460000
tp2953
F0.72215
s(I3070000
I3325000
tp2954
F0.96383
s(I3045000
I3170000
tp2955
F0.78131
s(I3335000
I3475000
tp2956
F0.3323
s(I3280000
I3455000
tp2957
F0.082201
s(I3115000
I3430000
tp2958
F-0.093754
s(I3170000
I3390000
tp2959
F0.1503
s(I3225000
I3410000
tp2960
F-0.40302
s(I3300000
I3320000
tp2961
F0.58491
s(I3085000
I3400000
tp2962
F-0.99652
s(I3260000
I3380000
tp2963
F1.0693
s(I3090000
I3410000
tp2964
F-0.84932
s(I3090000
I3385000
tp2965
F-0.16655
s(I3085000
I3490000
tp2966
F-0.97362
s(I3005000
I3035000
tp2967
F-0.12086
s(I3165000
I3245000
tp2968
F1.1191
s(I3010000
I3025000
tp2969
F-1.0049
s(I3080000
I3125000
tp2970
F0.96117
s(I3035000
I3245000
tp2971
F-0.25275
s(I3015000
I3040000
tp2972
F5.1933
s(I3375000
I3445000
tp2973
F0.88228
s(I3120000
I3270000
tp2974
F-0.75161
s(I3070000
I3260000
tp2975
F-0.66854
s(I3130000
I3190000
tp2976
F0.34188
s(I3190000
I3280000
tp2977
F0.70487
s(I3030000
I3435000
tp2978
F0.45859
s(I3335000
I3455000
tp2979
F0.82312
s(I3335000
I3465000
tp2980
F1.1646
s(I3230000
I3305000
tp2981
F1.5945
s(I3110000
I3290000
tp2982
F0.21851
s(I3080000
I3380000
tp2983
F0.87352
s(I3140000
I3480000
tp2984
F-0.60799
s(I3245000
I3255000
tp2985
F-0.065417
s(I3040000
I3390000
tp2986
F-0.21897
s(I3040000
I3360000
tp2987
F-0.40578
s(I3390000
I3465000
tp2988
F0.036977
s(I3045000
I3290000
tp2989
F0.78974
s(I3110000
I3415000
tp2990
F-0.81567
s(I3075000
I3265000
tp2991
F0.19495
s(I3300000
I3335000
tp2992
F0.77137
s(I3255000
I3375000
tp2993
F0.41288
s(I3260000
I3490000
tp2994
F-0.13499
s(I3235000
I3380000
tp2995
F-1.1506
s(I3090000
I3425000
tp2996
F0.58142
s(I3045000
I3455000
tp2997
F0.22542
s(I3025000
I3430000
tp2998
F-0.062217
s(I3165000
I3225000
tp2999
F-0.90567
s(I3120000
I3255000
tp3000
F0.57031
s(I3095000
I3210000
tp3001
F0.33005
s(I3475000
I3485000
tp3002
F0.51702
s(I3215000
I3400000
tp3003
F0.72467
s(I3065000
I3165000
tp3004
F-0.011217
s(I3255000
I3335000
tp3005
F0.98443
s(I3210000
I3420000
tp3006
F0.43673
s(I3180000
I3400000
tp3007
F0.37942
s(I3030000
I3320000
tp3008
F0.96262
s(I3005000
I3070000
tp3009
F0.15173
s(I3075000
I3430000
tp3010
F-0.57408
s(I3175000
I3390000
tp3011
F0.078986
s(I3245000
I3305000
tp3012
F1.4023
s(I3100000
I3390000
tp3013
F-0.38231
s(I3310000
I3355000
tp3014
F0.69628
s(I3285000
I3425000
tp3015
F-0.98446
s(I3395000
I3480000
tp3016
F0.48433
s(I3440000
I3450000
tp3017
F1.1999
s(I3070000
I3290000
tp3018
F0.37942
s(I3460000
I3470000
tp3019
F0.25593
s(I3030000
I3470000
tp3020
F0.02571
s(I3330000
I3475000
tp3021
F0.19556
s(I3315000
I3375000
tp3022
F1.9013
s(I3125000
I3440000
tp3023
F0.80901
s(I3305000
I3425000
tp3024
F-0.40759
s(I3105000
I3255000
tp3025
F0.62671
s(I3005000
I3380000
tp3026
F0.23357
s(I3105000
I3180000
tp3027
F-0.030741
s(I3045000
I3400000
tp3028
F1.1459
s(I3065000
I3125000
tp3029
F1.1528
s(I3085000
I3095000
tp3030
F-0.62777
s(I3005000
I3310000
tp3031
F0.32502
s(I3075000
I3090000
tp3032
F-0.1129
s(I3070000
I3370000
tp3033
F0.41828
s(I3275000
I3445000
tp3034
F3.3073
s(I3045000
I3450000
tp3035
F-0.58302
s(I3020000
I3040000
tp3036
F0.99664
s(I3045000
I3245000
tp3037
F-0.4912
s(I3065000
I3490000
tp3038
F-0.26925
s(I3225000
I3330000
tp3039
F1.0462
s(I3285000
I3470000
tp3040
F0.81865
s(I3140000
I3435000
tp3041
F-0.27964
s(I3105000
I3405000
tp3042
F0.19066
s(I3285000
I3485000
tp3043
F0.623
s(I3105000
I3330000
tp3044
F-0.88085
s(I3195000
I3360000
tp3045
F-0.53723
s(I3065000
I3385000
tp3046
F1.2575
s(I3115000
I3455000
tp3047
F0.22839
s(I3195000
I3455000
tp3048
F0.23286
s(I3090000
I3100000
tp3049
F0.47686
s(I3270000
I3295000
tp3050
F1.4427
s(I3035000
I3205000
tp3051
F0.040766
s(I3230000
I3455000
tp3052
F0.13747
s(I3245000
I3445000
tp3053
F0.34445
s(I3025000
I3260000
tp3054
F0.084007
s(I3190000
I3370000
tp3055
F-0.064292
s(I3045000
I3075000
tp3056
F-0.94357
s(I3030000
I3125000
tp3057
F0.88294
s(I3235000
I3415000
tp3058
F-0.91271
s(I3430000
I3445000
tp3059
F0.58398
s(I3255000
I3290000
tp3060
F0.24379
s(I3425000
I3445000
tp3061
F0.72215
s(I3425000
I3475000
tp3062
F0.52569
s(I3240000
I3270000
tp3063
F-0.38067
s(I3290000
I3315000
tp3064
F1.4427
s(I3110000
I3265000
tp3065
F0.16084
s(I3305000
I3455000
tp3066
F-0.9239
s(I3420000
I3465000
tp3067
F1.491
s(I3085000
I3245000
tp3068
F0.1283
s(I3175000
I3375000
tp3069
F2.9443
s(I3125000
I3160000
tp3070
F2.8337
s(I3265000
I3445000
tp3071
F0.40705
s(I3085000
I3135000
tp3072
F0.58188
s(I3240000
I3285000
tp3073
F0.32543
s(I3090000
I3175000
tp3074
F1.4066
s(I3365000
I3475000
tp3075
F0.49177
s(I3035000
I3470000
tp3076
F-0.24184
s(I3065000
I3405000
tp3077
F0.58684
s(I3070000
I3305000
tp3078
F0.68424
s(I3365000
I3450000
tp3079
F0.41846
s(I3165000
I3195000
tp3080
F-0.25076
s(I3025000
I3185000
tp3081
F0.040091
s(I3240000
I3490000
tp3082
F0.6996
s(I3295000
I3320000
tp3083
F1.3242
s(I3235000
I3490000
tp3084
F0.96383
s(I3120000
I3425000
tp3085
F0.78129
s(I3170000
I3290000
tp3086
F0.49493
s(I3315000
I3475000
tp3087
F0.48115
s(I3330000
I3465000
tp3088
F1.3463
s(I3135000
I3405000
tp3089
F0.059145
s(I3030000
I3070000
tp3090
F0.39909
s(I3025000
I3370000
tp3091
F0.36736
s(I3185000
I3240000
tp3092
F1.5044
s(I3185000
I3230000
tp3093
F-0.8401
s(I3080000
I3435000
tp3094
F0.5316
s(I3290000
I3365000
tp3095
F0.511
s(I3005000
I3185000
tp3096
F-0.15856
s(I3280000
I3430000
tp3097
F0.45442
s(I3025000
I3245000
tp3098
F-0.078811
s(I3305000
I3365000
tp3099
F0.71614
s(I3285000
I3325000
tp3100
F0.93095
s(I3300000
I3440000
tp3101
F0.57919
s(I3090000
I3395000
tp3102
F0.78129
s(I3250000
I3400000
tp3103
F0.54056
s(I3120000
I3325000
tp3104
F-0.087088
s(I3030000
I3075000
tp3105
F-0.73414
s(I3025000
I3395000
tp3106
F0.46367
s(I3200000
I3310000
tp3107
F1.4551
s(I3395000
I3460000
tp3108
F1.1249
s(I3065000
I3315000
tp3109
F-1.2037
s(I3335000
I3400000
tp3110
F0.69913
s(I3355000
I3455000
tp3111
F0.98823
s(I3005000
I3330000
tp3112
F-0.062249
s(I3165000
I3415000
tp3113
F-0.46353
s(I3310000
I3420000
tp3114
F1.0537
s(I3105000
I3400000
tp3115
F0.28582
s(I3230000
I3470000
tp3116
F-0.19388
s(I3065000
I3265000
tp3117
F1.5515
s(I3355000
I3400000
tp3118
F0.85521
s(I3400000
I3485000
tp3119
F0.68195
s(I3035000
I3375000
tp3120
F-0.36903
s(I3115000
I3370000
tp3121
F-0.23165
s(I3070000
I3215000
tp3122
F-0.028801
s(I3120000
I3280000
tp3123
F-0.04812
s(I3085000
I3460000
tp3124
F-0.65857
s(I3205000
I3410000
tp3125
F0.70831
s(I3215000
I3485000
tp3126
F1.0568
s(I3075000
I3365000
tp3127
F0.23843
s(I3140000
I3455000
tp3128
F-0.43229
s(I3070000
I3250000
tp3129
F0.12424
s(I3100000
I3425000
tp3130
F1.382
s(I3065000
I3465000
tp3131
F-0.31808
s(I3385000
I3485000
tp3132
F-0.62626
s(I3065000
I3410000
tp3133
F0.72762
s(I3300000
I3400000
tp3134
F-0.39562
s(I3115000
I3175000
tp3135
F1.5894
s(I3195000
I3225000
tp3136
F-0.20746
s(I3060000
I3070000
tp3137
F0.91871
s(I3205000
I3230000
tp3138
F0.060854
s(I3200000
I3235000
tp3139
F-0.90729
s(I3270000
I3415000
tp3140
F0.79387
s(I3005000
I3135000
tp3141
F-0.45389
s(I3070000
I3300000
tp3142
F0.15879
s(I3315000
I3485000
tp3143
F1.4407
s(I3070000
I3330000
tp3144
F0.12345
s(I3025000
I3375000
tp3145
F-0.096289
s(I3430000
I3440000
tp3146
F0.01492
s(I3190000
I3225000
tp3147
F0.53156
s(I3185000
I3225000
tp3148
F-0.18595
s(I3090000
I3460000
tp3149
F-0.036225
s(I3305000
I3485000
tp3150
F0.68986
s(I3310000
I3455000
tp3151
F0.34514
s(I3260000
I3430000
tp3152
F0.22742
s(I3165000
I3370000
tp3153
F-0.087088
s(I3220000
I3430000
tp3154
F0.63373
s(I3190000
I3380000
tp3155
F0.48278
s(I3225000
I3430000
tp3156
F1.3049
s(I3205000
I3355000
tp3157
F1.3159
s(I3295000
I3445000
tp3158
F0.88514
s(I3080000
I3105000
tp3159
F0.3767
s(I3190000
I3375000
tp3160
F0.91262
s(I3075000
I3395000
tp3161
F-0.51667
s(I3095000
I3260000
tp3162
F0.25751
s(I3045000
I3200000
tp3163
F-0.36228
s(I3105000
I3425000
tp3164
F0.4813
s(I3025000
I3210000
tp3165
F-0.02712
s(I3110000
I3135000
tp3166
F1.0873
s(I3095000
I3445000
tp3167
F0.76248
s(I3045000
I3385000
tp3168
F-0.84696
s(I3110000
I3140000
tp3169
F1.5679
s(I3040000
I3420000
tp3170
F-0.2592
s(I3170000
I3260000
tp3171
F0.38784
s(I3130000
I3215000
tp3172
F0.28671
s(I3030000
I3165000
tp3173
F0.57031
s(I3300000
I3450000
tp3174
F1.402
s(I3230000
I3370000
tp3175
F1.4845
s(I3435000
I3475000
tp3176
F0.45228
s(I3070000
I3450000
tp3177
F0.38033
s(I3320000
I3370000
tp3178
F0.80666
s(I3025000
I3080000
tp3179
F0.085634
s(I3025000
I3485000
tp3180
F-0.05818
s(I3375000
I3405000
tp3181
F0.22554
s(I3165000
I3450000
tp3182
F0.34639
s(I3035000
I3165000
tp3183
F-0.87982
s(I3220000
I3370000
tp3184
F0.28213
s(I3335000
I3445000
tp3185
F-0.39127
s(I3035000
I3420000
tp3186
F-0.4928
s(I3315000
I3360000
tp3187
F1.5439
s(I3210000
I3295000
tp3188
F0.68195
s(I3215000
I3310000
tp3189
F1.1893
s(I3220000
I3460000
tp3190
F0.65923
s(I3310000
I3405000
tp3191
F0.72975
s(I3290000
I3385000
tp3192
F0.040402
s(I3230000
I3385000
tp3193
F1.7302
s(I3265000
I3295000
tp3194
F1.0916
s(I3240000
I3335000
tp3195
F0.27019
s(I3070000
I3405000
tp3196
F-0.021915
s(I3035000
I3320000
tp3197
F0.56609
s(I3250000
I3480000
tp3198
F1.1381
s(I3135000
I3220000
tp3199
F-0.1744
s(I3080000
I3180000
tp3200
F0.29631
s(I3120000
I3245000
tp3201
F-0.16973
s(I3365000
I3460000
tp3202
F1.1127
s(I3140000
I3220000
tp3203
F-0.22715
s(I3275000
I3310000
tp3204
F-1.7226
s(I3130000
I3415000
tp3205
F-0.31269
s(I3400000
I3410000
tp3206
F0.73795
s(I3265000
I3335000
tp3207
F0.015965
s(I3310000
I3410000
tp3208
F0.91135
s(I3250000
I3335000
tp3209
F0.74782
s(I3005000
I3085000
tp3210
F-0.63102
s(I3045000
I3090000
tp3211
F-0.098401
s(I3045000
I3285000
tp3212
F-0.30052
s(I3045000
I3105000
tp3213
F0.2795
s(I3100000
I3435000
tp3214
F0.94342
s(I3195000
I3305000
tp3215
F0.49177
s(I3205000
I3310000
tp3216
F-0.66671
s(I3200000
I3330000
tp3217
F1.1646
s(I3225000
I3250000
tp3218
F1.0873
s(I3035000
I3405000
tp3219
F1.2135
s(I3170000
I3410000
tp3220
F-0.30052
s(I3030000
I3490000
tp3221
F-0.18952
s(I3175000
I3260000
tp3222
F-0.042656
s(I3280000
I3320000
tp3223
F1.8351
s(I3285000
I3450000
tp3224
F0.78734
s(I3270000
I3355000
tp3225
F1.0772
s(I3375000
I3400000
tp3226
F1.6006
s(I3040000
I3480000
tp3227
F0.80263
s(I3045000
I3065000
tp3228
F0.44767
s(I3075000
I3370000
tp3229
F0.059637
s(I3125000
I3315000
tp3230
F1.4422
s(I3005000
I3290000
tp3231
F0.34639
s(I3280000
I3370000
tp3232
F0.89508
s(I3220000
I3465000
tp3233
F1.535
s(I3215000
I3240000
tp3234
F1.5611
s(I3095000
I3255000
tp3235
F0.21651
s(I3090000
I3255000
tp3236
F-0.53723
s(I3125000
I3490000
tp3237
F0.52721
s(I3035000
I3120000
tp3238
F0.87957
s(I3280000
I3335000
tp3239
F0.82131
s(I3060000
I3080000
tp3240
F1.4427
s(I3005000
I3355000
tp3241
F0.14907
s(I3105000
I3435000
tp3242
F0.30889
s(I3310000
I3435000
tp3243
F1.0191
s(I3100000
I3235000
tp3244
F1.4239
s(I3090000
I3285000
tp3245
F-0.15192
s(I3100000
I3465000
tp3246
F1.3339
s(I3260000
I3445000
tp3247
F-0.12109
s(I3470000
I3480000
tp3248
F0.4166
s(I3095000
I3215000
tp3249
F-0.16145
s(I3070000
I3085000
tp3250
F-0.0014019
s(I3185000
I3320000
tp3251
F-0.12808
s(I3065000
I3325000
tp3252
F-1.1895
s(I3360000
I3465000
tp3253
F0.52488
s(I3135000
I3385000
tp3254
F1.2283
s(I3035000
I3295000
tp3255
F0.34227
s(I3325000
I3430000
tp3256
F1.2696
s(I3105000
I3335000
tp3257
F-0.82049
s(I3005000
I3410000
tp3258
F-0.58302
s(I3140000
I3285000
tp3259
F0.34514
s(I3405000
I3450000
tp3260
F0.53734
s(I3245000
I3490000
tp3261
F1.0027
s(I3215000
I3285000
tp3262
F0.94892
s(I3090000
I3215000
tp3263
F-0.24899
s(I3030000
I3300000
tp3264
F-0.38425
s(I3235000
I3450000
tp3265
F0.18002
s(I3115000
I3375000
tp3266
F-0.20478
s(I3185000
I3365000
tp3267
F0.59559
s(I3135000
I3355000
tp3268
F0.22668
s(I3035000
I3070000
tp3269
F0.099908
s(I3080000
I3315000
tp3270
F0.78428
s(I3200000
I3365000
tp3271
F0.34581
s(I3380000
I3460000
tp3272
F1.1191
s(I3135000
I3225000
tp3273
F-0.62666
s(I3175000
I3465000
tp3274
F0.44534
s(I3080000
I3220000
tp3275
F-0.49068
s(I3270000
I3395000
tp3276
F0.22653
s(I3265000
I3390000
tp3277
F-0.09048
s(I3360000
I3440000
tp3278
F1.0517
s(I3430000
I3455000
tp3279
F2.4297
s(I3420000
I3455000
tp3280
F1.0591
s(I3085000
I3380000
tp3281
F-0.16655
s(I3320000
I3455000
tp3282
F1.4239
s(I3140000
I3440000
tp3283
F0.41828
s(I3120000
I3290000
tp3284
F-0.052563
s(I3095000
I3365000
tp3285
F-0.051703
s(I3290000
I3400000
tp3286
F0.33122
s(I3175000
I3410000
tp3287
F0.78428
s(I3450000
I3475000
tp3288
F1.1268
s(I3185000
I3470000
tp3289
F0.45624
s(I3135000
I3330000
tp3290
F-0.24872
s(I3025000
I3440000
tp3291
F-0.16197
s(I3225000
I3275000
tp3292
F2.1553
s(I3030000
I3135000
tp3293
F-0.070914
s(I3095000
I3230000
tp3294
F-0.90406
s(I3255000
I3425000
tp3295
F-0.23922
s(I3005000
I3090000
tp3296
F0.22084
s(I3390000
I3440000
tp3297
F0.69427
s(I3170000
I3380000
tp3298
F0.43673
s(I3005000
I3095000
tp3299
F0.32443
s(I3185000
I3325000
tp3300
F0.16771
s(I3250000
I3415000
tp3301
F0.69903
s(I3065000
I3250000
tp3302
F0.2548
s(I3260000
I3375000
tp3303
F0.58775
s(I3205000
I3250000
tp3304
F0.27245
s(I3410000
I3490000
tp3305
F0.17671
s(I3115000
I3335000
tp3306
F0.60854
s(I3165000
I3310000
tp3307
F-0.25317
s(I3165000
I3250000
tp3308
F-0.1744
s(I3215000
I3275000
tp3309
F-0.46903
s(I3310000
I3465000
tp3310
F0.50958
s(I3290000
I3320000
tp3311
F0.74515
s(I3230000
I3420000
tp3312
F1.1544
s(I3410000
I3460000
tp3313
F0.80666
s(I3085000
I3165000
tp3314
F1.1191
s(I3005000
I3405000
tp3315
F-0.066486
s(I3275000
I3490000
tp3316
F0.18002
s(I3310000
I3320000
tp3317
F0.55719
s(I3105000
I3430000
tp3318
F0.048847
s(I3115000
I3435000
tp3319
F0.70307
s(I3285000
I3385000
tp3320
F-0.31874
s(I3205000
I3490000
tp3321
F0.45624
s(I3270000
I3440000
tp3322
F0.13409
s(I3190000
I3445000
tp3323
F-0.44901
s(I3270000
I3410000
tp3324
F0.3323
s(I3195000
I3250000
tp3325
F0.19073
s(I3275000
I3335000
tp3326
F0.8409
s(I3370000
I3440000
tp3327
F0.28252
s(I3265000
I3285000
tp3328
F0.5506
s(I3105000
I3315000
tp3329
F0.53523
s(I3320000
I3440000
tp3330
F0.16674
s(I3240000
I3450000
tp3331
F0.53523
s(I3190000
I3435000
tp3332
F0.68327
s(I3425000
I3480000
tp3333
F1.4519
s(I3255000
I3410000
tp3334
F0.42239
s(I3320000
I3465000
tp3335
F0.49471
s(I3295000
I3380000
tp3336
F0.5502
s(I3175000
I3285000
tp3337
F0.89315
s(I3170000
I3435000
tp3338
F0.8079
s(I3140000
I3475000
tp3339
F0.82275
s(I3225000
I3385000
tp3340
F-0.31275
s(I3405000
I3460000
tp3341
F0.29583
s(I3100000
I3250000
tp3342
F0.71285
s(I3270000
I3310000
tp3343
F0.50547
s(I3135000
I3295000
tp3344
F0.30473
s(I3375000
I3440000
tp3345
F1.1249
s(I3210000
I3260000
tp3346
F0.63808
s(I3025000
I3405000
tp3347
F-0.13129
s(I3240000
I3265000
tp3348
F1.4427
s(I3035000
I3200000
tp3349
F-0.62553
s(I3250000
I3405000
tp3350
F0.94551
s.